(ilolstats_util
PlayerMatchHistory
p0
(dp1
S'rank_type'
p2
S'TEAM_BUILDER_DRAFT_RANKED_5x5'
p3
sS'damage_p'
p4
(lp5
I40239
aI34699
aI21015
aI38390
aI16462
aI28640
aI17057
aI14286
aI14323
aI26746
aI27506
aI20608
aI33459
aI9578
aI30332
aI43410
aI36657
aI21900
aI20698
aI11554
aI23575
aI41006
aI22943
aI50698
aI11064
aI22468
aI9596
aI23859
aI6191
aI8398
aI28569
aI6711
aI39389
aI17706
aI11746
aI21147
aI20976
aI33930
aI23127
aI18321
aI13331
aI34393
aI31708
aI15732
aI6694
aI31633
aI15395
aI20242
aI40193
aI16991
aI16206
aI13127
aI23985
aI11962
aI23573
aI24401
aI24128
aI12422
aI17153
aI18314
aI19113
aI19858
aI22845
aI9668
aI13195
aI25008
aI22077
aI17200
aI24397
aI26653
aI17349
aI13173
aI27624
aI36496
aI19202
aI6878
aI14513
aI26167
aI15238
aI38739
aI11591
aI6463
aI21725
aI17421
asS'death'
p6
(lp7
I7
aI8
aI10
aI6
aI6
aI5
aI5
aI4
aI6
aI11
aI7
aI9
aI2
aI5
aI4
aI8
aI12
aI10
aI5
aI2
aI6
aI9
aI13
aI7
aI6
aI4
aI6
aI8
aI6
aI9
aI9
aI2
aI10
aI8
aI1
aI9
aI3
aI5
aI12
aI11
aI7
aI7
aI5
aI5
aI1
aI5
aI6
aI5
aI7
aI7
aI5
aI2
aI4
aI8
aI5
aI4
aI8
aI8
aI12
aI10
aI10
aI10
aI5
aI6
aI12
aI5
aI3
aI10
aI9
aI6
aI4
aI11
aI7
aI8
aI3
aI8
aI3
aI10
aI2
aI13
aI9
aI8
aI6
aI12
asS'neutralM_enemy'
p8
(lp9
I1
aI9
aI5
aI10
aI0
aI5
aI4
aI3
aI0
aI5
aI3
aI4
aI10
aI3
aI4
aI2
aI4
aI9
aI2
aI5
aI6
aI2
aI0
aI3
aI0
aI4
aI0
aI8
aI2
aI0
aI4
aI0
aI0
aI0
aI4
aI0
aI1
aI4
aI0
aI0
aI1
aI2
aI9
aI3
aI0
aI5
aI0
aI4
aI11
aI0
aI5
aI4
aI0
aI0
aI3
aI3
aI0
aI1
aI4
aI0
aI3
aI2
aI1
aI0
aI3
aI3
aI3
aI2
aI0
aI2
aI3
aI0
aI11
aI3
aI0
aI0
aI0
aI4
aI5
aI1
aI0
aI0
aI4
aI0
asS'gold'
p10
(lp11
I17605
aI19658
aI13239
aI17376
aI7886
aI13529
aI12734
aI11673
aI11119
aI19480
aI14058
aI11763
aI14302
aI6306
aI16820
aI19146
aI18092
aI14428
aI10343
aI8586
aI13909
aI22496
aI13890
aI23127
aI9899
aI13146
aI7352
aI13978
aI8170
aI8758
aI17242
aI7352
aI14602
aI9747
aI9762
aI13264
aI11847
aI15428
aI11478
aI9912
aI10494
aI13987
aI13941
aI12986
aI6751
aI16829
aI10507
aI14040
aI18171
aI9632
aI17311
aI12639
aI13096
aI8640
aI15019
aI15297
aI14800
aI12120
aI13334
aI10412
aI12565
aI16505
aI12965
aI7051
aI13528
aI14229
aI14234
aI11690
aI14488
aI16005
aI10386
aI6252
aI16869
aI18183
aI14028
aI6787
aI10509
aI17245
aI11098
aI16709
aI11202
aI6066
aI13267
aI10030
asS'summoner_id'
p12
I72749304
sS'vision_ward'
p13
(lp14
I0
aI2
aI1
aI1
aI0
aI0
aI1
aI1
aI0
aI1
aI1
aI0
aI1
aI0
aI2
aI0
aI1
aI0
aI0
aI1
aI1
aI0
aI1
aI1
aI0
aI1
aI0
aI1
aI0
aI1
aI0
aI1
aI1
aI0
aI0
aI0
aI1
aI3
aI0
aI1
aI0
aI0
aI1
aI1
aI1
aI0
aI1
aI0
aI0
aI0
aI2
aI1
aI1
aI0
aI0
aI2
aI1
aI0
aI1
aI0
aI0
aI2
aI2
aI0
aI3
aI1
aI0
aI1
aI3
aI1
aI1
aI0
aI2
aI0
aI0
aI0
aI0
aI0
aI0
aI1
aI1
aI1
aI0
aI0
asS'assist'
p15
(lp16
I14
aI14
aI15
aI9
aI3
aI11
aI7
aI7
aI5
aI12
aI8
aI8
aI3
aI1
aI9
aI13
aI9
aI15
aI7
aI7
aI10
aI19
aI8
aI5
aI7
aI11
aI4
aI6
aI0
aI3
aI7
aI2
aI5
aI3
aI9
aI7
aI10
aI6
aI5
aI6
aI3
aI5
aI9
aI7
aI5
aI10
aI2
aI4
aI11
aI2
aI4
aI6
aI6
aI5
aI10
aI12
aI11
aI17
aI7
aI3
aI7
aI9
aI15
aI2
aI5
aI7
aI3
aI6
aI8
aI13
aI5
aI3
aI8
aI18
aI19
aI1
aI9
aI10
aI11
aI17
aI5
aI2
aI13
aI5
asS'damage'
p17
(lp18
I49401
aI42581
aI21693
aI43603
aI18047
aI31126
aI18966
aI20772
aI16893
aI30998
aI31670
aI21665
aI37109
aI9578
aI34431
aI53563
aI49927
aI28791
aI25749
aI12285
aI25300
aI50167
aI24729
aI63677
aI17304
aI24358
aI12064
aI29990
aI6731
aI9844
aI37508
aI6851
aI42088
aI21143
aI12837
aI22297
aI26292
aI36199
aI24868
aI21035
aI15005
aI36289
aI36929
aI17320
aI7340
aI36621
aI16462
aI25429
aI43644
aI18027
aI17460
aI14303
aI26649
aI12987
aI28451
aI29959
aI28801
aI14886
aI19120
aI20029
aI20909
aI29290
aI30143
aI10374
aI16545
aI33723
aI23794
aI19572
aI26815
aI27490
aI17626
aI13672
aI34370
aI41309
aI22835
aI7169
aI17955
aI29711
aI17044
aI42510
aI13502
aI7024
aI24189
aI20215
asS'ward_place'
p19
(lp20
I12
aI13
aI11
aI14
aI10
aI8
aI13
aI9
aI11
aI15
aI12
aI10
aI9
aI6
aI10
aI16
aI16
aI12
aI3
aI5
aI11
aI17
aI11
aI21
aI7
aI13
aI9
aI8
aI4
aI9
aI13
aI5
aI14
aI9
aI7
aI12
aI9
aI8
aI9
aI9
aI10
aI13
aI10
aI12
aI5
aI7
aI11
aI10
aI13
aI9
aI15
aI10
aI10
aI8
aI12
aI12
aI12
aI9
aI10
aI7
aI9
aI15
aI11
aI7
aI12
aI10
aI12
aI12
aI12
aI11
aI7
aI2
aI10
aI14
aI10
aI7
aI8
aI8
aI8
aI13
aI11
aI2
aI11
aI8
asS'damage_taken'
p21
(lp22
I28073
aI25635
aI26547
aI22565
aI13617
aI25144
aI19138
aI16544
aI20683
aI29490
aI19509
aI21813
aI14039
aI11762
aI17725
aI31889
aI32843
aI22457
aI14676
aI10789
aI19463
aI43408
aI32931
aI40084
aI16633
aI16771
aI13625
aI25916
aI14112
aI16052
aI29770
aI7089
aI28548
aI19906
aI7862
aI28383
aI17192
aI19444
aI25412
aI18482
aI15404
aI23241
aI21867
aI18544
aI6132
aI22032
aI18682
aI18813
aI25679
aI22022
aI25232
aI14098
aI15427
aI15271
aI16225
aI19577
aI24040
aI17455
aI23223
aI22244
aI22309
aI28972
aI18488
aI11692
aI23743
aI17512
aI16566
aI21166
aI24344
aI20005
aI17187
aI18569
aI25501
aI28594
aI15953
aI13364
aI17972
aI25415
aI15287
aI31452
aI21047
aI12036
aI19244
aI22916
asS'kill'
p23
(lp24
I11
aI12
aI8
aI11
aI3
aI10
aI4
aI7
aI2
aI10
aI9
aI3
aI14
aI1
aI18
aI14
aI10
aI7
aI3
aI3
aI10
aI8
aI5
aI12
aI3
aI6
aI2
aI9
aI2
aI0
aI10
aI5
aI10
aI8
aI3
aI2
aI13
aI12
aI9
aI5
aI3
aI6
aI12
aI2
aI2
aI22
aI5
aI10
aI9
aI2
aI6
aI8
aI10
aI7
aI7
aI4
aI6
aI1
aI7
aI5
aI6
aI9
aI4
aI3
aI5
aI13
aI13
aI7
aI5
aI8
aI6
aI4
aI10
aI9
aI7
aI2
aI7
aI11
aI3
aI8
aI2
aI1
aI8
aI2
asS'season'
p25
S'SEASON2016'
p26
sS'match_list'
p27
(lp28
I2245497472
aI2236137473
aI2190250478
aI2162107621
aI2273931908
aI2213217669
aI2162101961
aI2133644695
aI2132080397
aI2246515086
aI2226991119
aI2156927633
aI2153536782
aI2126241899
aI2224141333
aI2151110842
aI2150642456
aI2132035736
aI2103954261
aI2199623709
aI2073359682
aI2188510975
aI2151011136
aI2140355873
aI2106702862
aI2124275619
aI2152944548
aI2245553061
aI2259789350
aI2131855022
aI2208278959
aI2151077306
aI2130469172
aI2126309412
aI2252432439
aI2211630392
aI2107027252
aI2266825658
aI2130528190
aI2244715200
aI2266963266
aI2157038404
aI2101137477
aI2163095497
aI2266909642
aI2190184524
aI2156475037
aI2130555854
aI2267139407
aI2151904336
aI2155478098
aI2108683859
aI2266849493
aI2156921942
aI2133342423
aI2266769624
aI2282453849
aI2208335066
aI2246569935
aI2195862202
aI2163231488
aI2207537759
aI2127713248
aI2079577448
aI2281807459
aI2205203812
aI2247152869
aI2079598567
aI2267214056
aI2142046921
aI2143263211
aI2241873004
aI2130335122
aI2208272238
aI2210262768
aI2255964145
aI2103958291
aI2188590528
aI2150264693
aI2122108406
aI2130385878
aI2266948985
aI2268126971
aI2245557717
asS'neutralM'
p29
(lp30
I9
aI26
aI11
aI38
aI3
aI6
aI13
aI12
aI3
aI50
aI12
aI18
aI15
aI7
aI17
aI32
aI22
aI19
aI7
aI5
aI16
aI48
aI12
aI42
aI12
aI9
aI8
aI13
aI2
aI4
aI26
aI2
aI6
aI8
aI9
aI9
aI4
aI14
aI5
aI1
aI6
aI2
aI23
aI18
aI0
aI23
aI7
aI11
aI23
aI5
aI30
aI11
aI0
aI6
aI23
aI13
aI6
aI12
aI21
aI2
aI11
aI18
aI17
aI2
aI16
aI15
aI4
aI10
aI16
aI14
aI4
aI0
aI29
aI15
aI13
aI1
aI0
aI25
aI15
aI21
aI8
aI0
aI12
aI1
asS'neutralM_team'
p31
(lp32
I8
aI17
aI6
aI28
aI3
aI1
aI9
aI9
aI3
aI45
aI9
aI14
aI5
aI4
aI13
aI30
aI18
aI10
aI5
aI0
aI10
aI46
aI12
aI39
aI12
aI5
aI8
aI5
aI0
aI4
aI22
aI2
aI6
aI8
aI5
aI9
aI3
aI10
aI5
aI1
aI5
aI0
aI14
aI15
aI0
aI18
aI7
aI7
aI12
aI5
aI25
aI7
aI0
aI6
aI20
aI10
aI6
aI11
aI17
aI2
aI8
aI16
aI16
aI2
aI13
aI12
aI1
aI8
aI16
aI12
aI1
aI0
aI18
aI12
aI13
aI1
aI0
aI21
aI10
aI20
aI8
aI0
aI8
aI1
asS'summoner_name'
p33
S'dhn'
p34
sS'region'
p35
S'na'
p36
sS'minions'
p37
(lp38
I253
aI307
aI145
aI227
aI124
aI208
aI262
aI163
aI215
aI212
aI206
aI186
aI207
aI114
aI217
aI278
aI279
aI175
aI164
aI154
aI157
aI360
aI212
aI387
aI176
aI207
aI128
aI216
aI167
aI189
aI215
aI101
aI236
aI139
aI148
aI282
aI150
aI209
aI178
aI157
aI202
aI267
aI172
aI249
aI99
aI167
aI188
aI199
aI299
aI199
aI269
aI216
aI200
aI121
aI216
aI297
aI284
aI178
aI187
aI209
aI210
aI227
aI214
aI131
aI246
aI186
aI215
aI182
aI263
aI252
aI151
aI88
aI266
aI296
aI202
aI142
aI173
aI271
aI178
aI270
aI201
aI122
aI167
aI207
asS'damage_m'
p39
(lp40
I8140
aI6800
aI677
aI1266
aI1584
aI1976
aI1449
aI5709
aI2569
aI3334
aI4133
aI688
aI1988
aI0
aI3934
aI9172
aI10218
aI5465
aI4314
aI730
aI1052
aI7266
aI850
aI9771
aI5807
aI958
aI2260
aI5917
aI539
aI1446
aI7894
aI140
aI1078
aI3031
aI1091
aI820
aI4267
aI1655
aI1061
aI2714
aI1534
aI1447
aI3716
aI842
aI645
aI3216
aI779
aI4495
aI3130
aI327
aI1253
aI1176
aI2663
aI693
aI4046
aI5558
aI4438
aI2156
aI1599
aI908
aI1515
aI0
aI6817
aI706
aI2653
aI7099
aI765
aI2216
aI1757
aI836
aI276
aI499
aI5851
aI2468
aI2614
aI291
aI3441
aI2691
aI1346
aI1336
aI1911
aI561
aI2010
aI2793
asb.