(ilolstats_util
PlayerMatchHistory
p0
(dp1
S'rank_type'
p2
S'TEAM_BUILDER_DRAFT_RANKED_5x5'
p3
sS'damage_p'
p4
(lp5
I29150
aI23593
aI7167
aI36819
aI14835
aI11823
aI12035
aI26988
aI5153
aI13598
aI21198
aI17929
aI11031
aI10131
aI24786
aI12585
aI32695
aI17104
aI11489
aI17467
aI11088
aI8793
aI4160
aI12490
aI24406
aI23908
aI8635
aI31752
aI21944
aI13984
aI10376
aI21344
aI10054
aI15985
aI17255
aI5056
aI3552
aI12244
aI30762
aI12888
aI24122
aI44040
aI6857
aI7715
aI7714
aI11408
aI16884
aI21951
aI21416
aI17231
aI15604
aI12959
aI17319
aI24223
aI24059
aI43289
aI16788
aI13012
aI15861
aI5701
aI15947
aI13243
aI24820
aI722
aI7884
aI19843
aI20925
aI3943
aI12482
aI9923
aI4472
aI33332
aI25468
aI28087
aI32655
aI22792
aI26039
aI8957
aI23038
aI40544
aI5742
aI22923
aI30650
aI12356
aI22835
aI19139
aI21048
aI43566
aI32122
aI9735
aI31221
aI17192
aI11623
aI12718
aI30569
aI7255
aI28703
aI24198
aI24244
aI12781
aI19102
aI19852
aI10544
aI15803
aI18609
aI14277
aI17328
aI4605
aI35454
aI23810
aI10619
aI16573
aI40509
aI24404
aI14517
aI12629
aI30111
aI18060
aI938
aI12808
aI11409
aI22453
aI25345
aI35741
aI13283
aI40221
aI38744
aI20714
aI8697
aI30675
aI11035
aI40711
aI39557
aI33181
aI17587
aI11636
aI6000
aI21156
aI18470
aI7995
aI6084
aI11530
aI27996
aI16432
aI23891
aI10840
aI7233
aI21106
aI12498
aI10452
aI5828
aI251
aI26448
aI20422
aI3695
aI12856
aI54421
aI26389
aI19911
aI34179
aI27805
aI27326
aI3376
aI15310
aI17380
aI14238
aI32567
aI8821
aI38828
aI13507
aI15422
aI27426
aI15899
aI20833
aI35202
aI30374
aI2773
aI15464
aI9006
aI2722
aI15475
aI15175
aI8991
aI18073
aI11027
aI6629
aI8079
aI20651
aI7669
aI43854
aI30001
aI17028
aI18755
aI21196
aI9023
aI23227
aI28771
aI24843
aI22022
aI21496
aI41724
aI14596
aI17145
aI23594
aI5959
aI21254
aI29352
aI15322
aI18509
aI30201
aI10141
aI22783
aI16459
aI45396
aI20297
aI28227
aI17372
aI8316
aI6543
aI17329
aI7431
aI31333
aI10969
aI21778
aI27486
aI11939
aI33027
aI38735
aI21788
aI35823
aI59739
aI8418
aI5653
aI30048
aI10709
aI19234
aI14452
aI16474
aI12487
aI9828
aI22358
aI9022
aI30463
aI8621
aI41648
aI39084
aI5305
aI28597
aI39277
aI33604
aI11698
aI20054
aI16694
aI10466
aI17713
aI10237
aI22993
aI35479
aI31626
aI29308
aI11134
aI8477
aI14265
aI23507
aI30860
aI18140
aI21631
aI86780
aI28287
aI13181
aI15130
aI17166
aI38933
aI5059
aI22991
aI13882
aI32207
aI25284
aI7706
aI9755
aI27307
aI15252
aI11641
aI23194
aI34048
aI85438
aI3694
aI19943
aI4970
aI22494
aI14113
aI30938
aI19412
aI23260
aI11090
aI27237
aI9655
aI17088
aI9907
aI347
aI21081
aI23136
aI47694
aI29922
aI21652
aI19462
aI18954
aI37382
aI14187
aI12033
aI7050
aI16000
aI22042
aI14829
aI26591
aI17682
aI29564
aI57112
aI35077
aI28138
aI6155
aI7965
aI16866
aI17477
aI19876
aI2622
aI12285
aI9749
aI22211
aI8036
aI19655
aI23256
aI3890
aI34108
aI4947
aI13814
aI23481
aI11905
aI12033
aI26266
asS'death'
p6
(lp7
I4
aI10
aI9
aI6
aI1
aI6
aI2
aI6
aI2
aI8
aI3
aI3
aI4
aI1
aI5
aI5
aI6
aI2
aI2
aI0
aI1
aI1
aI6
aI1
aI5
aI8
aI5
aI9
aI1
aI2
aI1
aI8
aI0
aI2
aI9
aI3
aI1
aI4
aI10
aI2
aI3
aI6
aI0
aI10
aI1
aI3
aI1
aI8
aI4
aI1
aI1
aI3
aI1
aI1
aI8
aI5
aI2
aI6
aI6
aI3
aI9
aI7
aI4
aI6
aI1
aI6
aI7
aI7
aI6
aI4
aI3
aI5
aI6
aI3
aI9
aI3
aI6
aI5
aI7
aI11
aI9
aI7
aI4
aI12
aI9
aI6
aI6
aI6
aI3
aI6
aI8
aI9
aI4
aI3
aI9
aI10
aI6
aI7
aI3
aI1
aI3
aI8
aI1
aI3
aI2
aI0
aI2
aI2
aI3
aI7
aI0
aI2
aI4
aI4
aI0
aI9
aI7
aI4
aI3
aI4
aI8
aI4
aI10
aI6
aI1
aI8
aI6
aI5
aI1
aI7
aI2
aI7
aI5
aI5
aI8
aI7
aI5
aI3
aI1
aI1
aI1
aI3
aI4
aI9
aI4
aI4
aI0
aI5
aI3
aI6
aI0
aI5
aI7
aI10
aI2
aI7
aI10
aI9
aI1
aI7
aI8
aI10
aI10
aI2
aI5
aI5
aI9
aI1
aI6
aI0
aI11
aI3
aI3
aI3
aI8
aI5
aI7
aI4
aI9
aI2
aI6
aI9
aI3
aI8
aI2
aI2
aI0
aI3
aI6
aI11
aI6
aI4
aI3
aI3
aI2
aI10
aI9
aI2
aI3
aI6
aI4
aI8
aI7
aI5
aI3
aI7
aI3
aI3
aI9
aI10
aI2
aI2
aI6
aI7
aI5
aI4
aI4
aI7
aI6
aI7
aI4
aI9
aI6
aI7
aI7
aI4
aI8
aI4
aI6
aI5
aI9
aI1
aI6
aI5
aI4
aI6
aI4
aI4
aI1
aI7
aI5
aI10
aI13
aI1
aI4
aI4
aI1
aI6
aI8
aI9
aI0
aI7
aI2
aI0
aI9
aI1
aI4
aI4
aI5
aI7
aI1
aI2
aI2
aI8
aI4
aI0
aI2
aI13
aI7
aI5
aI3
aI5
aI4
aI3
aI6
aI6
aI8
aI13
aI0
aI4
aI4
aI8
aI4
aI13
aI5
aI10
aI0
aI6
aI1
aI7
aI5
aI0
aI4
aI7
aI2
aI2
aI6
aI6
aI4
aI0
aI6
aI2
aI6
aI7
aI4
aI3
aI4
aI6
aI1
aI6
aI6
aI3
aI10
aI3
aI5
aI5
aI5
aI9
aI8
aI5
aI2
aI1
aI4
aI2
aI5
aI1
aI3
aI8
aI5
aI7
aI8
aI6
aI0
aI6
aI5
aI1
aI3
aI2
aI3
aI3
asS'neutralM_enemy'
p8
(lp9
I7
aI0
aI4
aI17
aI8
aI5
aI1
aI0
aI0
aI1
aI5
aI7
aI1
aI4
aI2
aI8
aI2
aI11
aI2
aI5
aI4
aI3
aI5
aI1
aI0
aI4
aI0
aI4
aI8
aI3
aI0
aI2
aI7
aI5
aI3
aI1
aI7
aI2
aI10
aI0
aI10
aI14
aI2
aI1
aI0
aI0
aI2
aI6
aI3
aI8
aI12
aI0
aI2
aI2
aI6
aI7
aI2
aI0
aI0
aI0
aI1
aI4
aI1
aI1
aI0
aI1
aI9
aI0
aI9
aI0
aI7
aI0
aI3
aI7
aI1
aI4
aI3
aI1
aI2
aI1
aI3
aI0
aI20
aI4
aI2
aI3
aI9
aI8
aI2
aI1
aI5
aI0
aI0
aI0
aI11
aI0
aI13
aI3
aI4
aI1
aI0
aI4
aI0
aI7
aI17
aI8
aI0
aI0
aI11
aI0
aI0
aI1
aI22
aI6
aI25
aI0
aI16
aI0
aI0
aI2
aI0
aI4
aI0
aI6
aI9
aI16
aI6
aI5
aI3
aI11
aI4
aI3
aI17
aI9
aI6
aI6
aI0
aI3
aI1
aI4
aI2
aI10
aI6
aI3
aI13
aI4
aI0
aI6
aI4
aI0
aI10
aI8
aI4
aI3
aI12
aI1
aI6
aI7
aI9
aI10
aI5
aI9
aI0
aI0
aI6
aI1
aI3
aI1
aI2
aI4
aI3
aI14
aI2
aI7
aI6
aI5
aI0
aI3
aI0
aI0
aI1
aI0
aI0
aI0
aI3
aI2
aI5
aI2
aI0
aI29
aI3
aI5
aI0
aI9
aI1
aI2
aI5
aI0
aI17
aI1
aI3
aI6
aI0
aI1
aI0
aI0
aI8
aI4
aI2
aI3
aI7
aI7
aI9
aI8
aI0
aI10
aI16
aI0
aI0
aI1
aI0
aI7
aI0
aI7
aI3
aI6
aI4
aI3
aI4
aI7
aI5
aI0
aI5
aI6
aI0
aI0
aI6
aI2
aI1
aI0
aI8
aI1
aI20
aI7
aI12
aI8
aI4
aI3
aI0
aI1
aI7
aI10
aI11
aI2
aI4
aI9
aI4
aI5
aI19
aI1
aI3
aI0
aI12
aI2
aI5
aI4
aI13
aI2
aI1
aI8
aI3
aI2
aI5
aI2
aI6
aI0
aI14
aI10
aI6
aI8
aI14
aI8
aI0
aI0
aI7
aI16
aI0
aI0
aI2
aI4
aI4
aI22
aI18
aI2
aI2
aI10
aI0
aI1
aI10
aI0
aI0
aI11
aI13
aI14
aI5
aI1
aI9
aI4
aI6
aI0
aI0
aI1
aI22
aI17
aI6
aI8
aI4
aI2
aI21
aI2
aI0
aI1
aI0
aI1
aI1
aI2
aI12
aI0
aI4
aI0
aI0
aI5
aI14
aI9
aI0
aI4
aI11
aI5
aI3
aI14
asS'gold'
p10
(lp11
I16746
aI12891
aI12386
aI23761
aI12660
aI12408
aI11187
aI14386
aI5494
aI10120
aI14053
aI14246
aI8772
aI10966
aI12205
aI17218
aI16518
aI13065
aI9041
aI12045
aI10565
aI9744
aI12313
aI11663
aI15534
aI12478
aI9185
aI18429
aI11392
aI11076
aI6662
aI14314
aI11081
aI11427
aI14969
aI12980
aI10217
aI9608
aI15339
aI9817
aI14211
aI18120
aI9167
aI13044
aI9421
aI8901
aI11774
aI13009
aI13982
aI14555
aI13123
aI8369
aI12380
aI13319
aI16593
aI19704
aI12929
aI10047
aI11773
aI3816
aI12701
aI12796
aI16424
aI8895
aI4692
aI15651
aI17118
aI10406
aI13842
aI7211
aI13253
aI14955
aI12405
aI15174
aI15226
aI11668
aI14179
aI12555
aI11143
aI16807
aI13925
aI13535
aI15282
aI9810
aI13009
aI15192
aI13205
aI22382
aI14752
aI7941
aI15559
aI9383
aI11075
aI9008
aI21017
aI11203
aI18389
aI18517
aI13323
aI8310
aI11980
aI15526
aI7060
aI15518
aI14724
aI12132
aI13301
aI9455
aI15937
aI14167
aI7989
aI12296
aI18147
aI15197
aI14536
aI12242
aI18737
aI13707
aI3662
aI13792
aI6312
aI14348
aI16944
aI15553
aI9162
aI18256
aI19882
aI14432
aI8869
aI16938
aI9520
aI19132
aI19820
aI19734
aI13942
aI10589
aI8860
aI14506
aI11377
aI8185
aI6798
aI12332
aI14894
aI12054
aI16704
aI11686
aI8352
aI13652
aI12420
aI9134
aI7866
aI11141
aI13039
aI12480
aI11776
aI9203
aI20911
aI19016
aI14643
aI20763
aI18683
aI18540
aI9793
aI11279
aI13589
aI12560
aI16334
aI9127
aI18341
aI9704
aI10521
aI18572
aI11087
aI12610
aI16256
aI15887
aI5231
aI10683
aI7628
aI3191
aI13344
aI12726
aI6628
aI13784
aI10114
aI7454
aI8452
aI12527
aI9234
aI29301
aI16401
aI11889
aI14129
aI14044
aI8508
aI12599
aI14686
aI14896
aI16555
aI12774
aI16116
aI20757
aI10834
aI11532
aI8170
aI15634
aI15020
aI11082
aI13471
aI16580
aI11751
aI13599
aI18437
aI21013
aI12701
aI17067
aI14662
aI11087
aI6832
aI13438
aI6936
aI17826
aI10146
aI12898
aI15187
aI13179
aI17835
aI17030
aI14324
aI17984
aI23349
aI7561
aI10238
aI14684
aI9244
aI11136
aI12600
aI13299
aI10863
aI8136
aI15672
aI10929
aI17217
aI9429
aI17378
aI17898
aI11295
aI15571
aI14512
aI17951
aI9799
aI16781
aI13662
aI11155
aI15044
aI10390
aI15082
aI16704
aI21447
aI13807
aI8553
aI5829
aI11620
aI14668
aI18522
aI11132
aI16615
aI24434
aI16282
aI11367
aI9574
aI13244
aI16535
aI8349
aI18177
aI9856
aI18339
aI16807
aI13867
aI8185
aI15121
aI11758
aI8746
aI16963
aI16755
aI26081
aI4456
aI14224
aI6702
aI13309
aI9140
aI14792
aI14781
aI13744
aI9131
aI16037
aI11523
aI12512
aI18804
aI1109
aI13926
aI13892
aI20223
aI17690
aI13545
aI10589
aI15441
aI19364
aI13913
aI8968
aI9189
aI13108
aI14105
aI11171
aI17339
aI15617
aI17086
aI23663
aI17469
aI13654
aI8591
aI9307
aI11542
aI13488
aI9982
aI8259
aI13200
aI11450
aI13973
aI6475
aI12288
aI15579
aI8737
aI18328
aI8184
aI11363
aI16021
aI9452
aI9588
aI14571
asS'summoner_id'
p12
I20132258
sS'vision_ward'
p13
(lp14
I3
aI3
aI2
aI3
aI4
aI4
aI3
aI5
aI0
aI0
aI3
aI4
aI1
aI1
aI2
aI3
aI4
aI2
aI3
aI1
aI2
aI2
aI3
aI1
aI3
aI1
aI0
aI2
aI2
aI1
aI1
aI2
aI1
aI3
aI2
aI6
aI2
aI2
aI3
aI3
aI2
aI3
aI0
aI1
aI2
aI1
aI3
aI1
aI1
aI3
aI2
aI1
aI4
aI0
aI2
aI2
aI3
aI1
aI2
aI0
aI3
aI2
aI3
aI2
aI1
aI1
aI1
aI3
aI1
aI1
aI2
aI3
aI2
aI2
aI2
aI2
aI1
aI3
aI3
aI3
aI3
aI4
aI2
aI0
aI1
aI2
aI2
aI2
aI1
aI3
aI1
aI2
aI1
aI4
aI4
aI3
aI1
aI4
aI1
aI1
aI0
aI3
aI0
aI2
aI3
aI2
aI3
aI1
aI3
aI3
aI1
aI1
aI2
aI1
aI2
aI0
aI2
aI3
aI1
aI3
aI1
aI2
aI4
aI2
aI1
aI2
aI4
aI2
aI2
aI4
aI2
aI2
aI1
aI6
aI3
aI3
aI2
aI3
aI0
aI2
aI2
aI3
aI3
aI1
aI2
aI0
aI3
aI1
aI3
aI1
aI2
aI1
aI4
aI4
aI2
aI2
aI2
aI1
aI3
aI2
aI2
aI1
aI2
aI1
aI1
aI2
aI2
aI3
aI5
aI2
aI2
aI3
aI2
aI4
aI3
aI3
aI0
aI2
aI1
aI2
aI8
aI4
aI1
aI2
aI3
aI1
aI1
aI1
aI3
aI1
aI2
aI2
aI2
aI0
aI3
aI2
aI2
aI0
aI2
aI2
aI4
aI2
aI2
aI3
aI1
aI3
aI1
aI2
aI1
aI1
aI1
aI2
aI0
aI2
aI1
aI2
aI3
aI0
aI1
aI3
aI1
aI0
aI0
aI2
aI2
aI2
aI3
aI3
aI0
aI1
aI0
aI1
aI0
aI1
aI1
aI1
aI1
aI2
aI2
aI0
aI3
aI2
aI2
aI1
aI3
aI2
aI3
aI1
aI2
aI1
aI2
aI3
aI2
aI3
aI2
aI2
aI3
aI0
aI2
aI2
aI1
aI1
aI3
aI2
aI5
aI3
aI3
aI3
aI5
aI3
aI1
aI2
aI4
aI2
aI2
aI1
aI2
aI6
aI2
aI2
aI2
aI3
aI2
aI2
aI2
aI3
aI1
aI2
aI2
aI4
aI2
aI1
aI2
aI5
aI0
aI4
aI4
aI3
aI2
aI0
aI3
aI2
aI2
aI2
aI3
aI2
aI3
aI3
aI0
aI1
aI0
aI5
aI1
aI2
aI3
aI3
aI2
aI3
aI1
aI2
aI1
aI2
aI2
aI3
aI3
aI2
aI4
aI0
aI2
aI2
aI2
aI3
aI0
aI0
aI1
aI2
aI1
aI3
aI1
aI2
asS'assist'
p15
(lp16
I11
aI12
aI7
aI14
aI14
aI9
aI9
aI9
aI1
aI4
aI8
aI7
aI7
aI4
aI9
aI7
aI6
aI7
aI7
aI5
aI7
aI5
aI4
aI7
aI11
aI9
aI1
aI13
aI15
aI9
aI1
aI9
aI9
aI6
aI4
aI33
aI7
aI9
aI9
aI7
aI15
aI5
aI2
aI4
aI4
aI1
aI4
aI9
aI9
aI4
aI10
aI3
aI10
aI6
aI9
aI14
aI14
aI5
aI7
aI1
aI3
aI7
aI8
aI0
aI1
aI6
aI18
aI2
aI5
aI4
aI8
aI17
aI6
aI10
aI12
aI9
aI12
aI14
aI5
aI4
aI7
aI4
aI5
aI3
aI5
aI5
aI9
aI17
aI12
aI8
aI8
aI3
aI4
aI12
aI8
aI6
aI14
aI7
aI11
aI4
aI2
aI11
aI5
aI17
aI7
aI4
aI2
aI2
aI25
aI5
aI6
aI7
aI10
aI11
aI9
aI2
aI13
aI3
aI3
aI5
aI5
aI12
aI10
aI9
aI6
aI10
aI15
aI11
aI2
aI4
aI8
aI6
aI9
aI13
aI5
aI3
aI5
aI11
aI9
aI1
aI3
aI6
aI5
aI1
aI12
aI2
aI5
aI7
aI8
aI5
aI8
aI6
aI5
aI9
aI8
aI1
aI16
aI15
aI3
aI17
aI16
aI10
aI6
aI6
aI1
aI1
aI5
aI6
aI5
aI6
aI5
aI13
aI16
aI7
aI4
aI12
aI1
aI9
aI2
aI1
aI2
aI6
aI3
aI7
aI1
aI10
aI10
aI8
aI4
aI16
aI6
aI6
aI9
aI11
aI7
aI10
aI8
aI3
aI7
aI6
aI8
aI11
aI9
aI6
aI2
aI7
aI5
aI8
aI6
aI12
aI3
aI12
aI10
aI14
aI6
aI6
aI8
aI6
aI1
aI2
aI1
aI5
aI1
aI5
aI5
aI4
aI15
aI6
aI11
aI8
aI3
aI5
aI3
aI13
aI13
aI5
aI6
aI10
aI7
aI0
aI12
aI4
aI22
aI5
aI10
aI5
aI10
aI10
aI8
aI7
aI12
aI6
aI7
aI5
aI5
aI4
aI10
aI8
aI7
aI5
aI3
aI1
aI8
aI9
aI11
aI7
aI10
aI16
aI13
aI1
aI11
aI3
aI9
aI1
aI5
aI12
aI10
aI15
aI3
aI4
aI6
aI13
aI1
aI2
aI6
aI16
aI2
aI9
aI3
aI6
aI6
aI11
aI7
aI18
aI7
aI4
aI2
aI8
aI6
aI0
aI13
aI8
aI16
aI12
aI6
aI1
aI10
aI13
aI2
aI5
aI1
aI6
aI3
aI14
aI12
aI10
aI10
aI16
aI11
aI7
aI7
aI3
aI3
aI11
aI7
aI1
aI7
aI2
aI15
aI0
aI6
aI7
aI4
aI9
aI4
aI11
aI5
aI8
aI8
aI11
asS'damage'
p17
(lp18
I37841
aI25563
aI28161
aI67370
aI17398
aI14180
aI23779
aI33369
aI5571
aI14593
aI24013
aI20252
aI12122
aI10759
aI26265
aI31994
aI35818
aI17982
aI12278
aI19456
aI11347
aI11752
aI21218
aI13819
aI27031
aI25615
aI9240
aI39040
aI23443
aI15514
aI10636
aI23129
aI11347
aI16508
aI18919
aI13868
aI13905
aI14107
aI37111
aI16022
aI28333
aI48230
aI7939
aI25379
aI8728
aI12545
aI18300
aI24741
aI26655
aI19288
aI18625
aI14484
aI20078
aI30464
aI28388
aI51161
aI20698
aI16500
aI16784
aI6144
aI16181
aI19725
aI30233
aI10231
aI8464
aI22347
aI23685
aI18319
aI27227
aI10229
aI27547
aI35124
aI27204
aI34462
aI39598
aI25030
aI29387
aI22052
aI24975
aI43800
aI31781
aI24901
aI32453
aI13528
aI24558
aI19962
aI25042
aI56027
aI40265
aI11645
aI35196
aI19425
aI13474
aI13311
aI33660
aI8471
aI34856
aI28925
aI33150
aI13849
aI20166
aI21437
aI10718
aI30514
aI20943
aI16322
aI19205
aI9933
aI40662
aI25872
aI11415
aI19845
aI42275
aI26820
aI15077
aI13337
aI37878
aI21647
aI2526
aI14702
aI14291
aI27596
aI33571
aI38436
aI15615
aI48751
aI45880
aI21968
aI9648
aI33404
aI12653
aI43481
aI51810
aI40499
aI21732
aI12763
aI11235
aI24200
aI19537
aI8624
aI9671
aI13039
aI30513
aI33300
aI26808
aI20985
aI8302
aI22586
aI24722
aI11221
aI6375
aI8720
aI27213
aI23784
aI15136
aI13386
aI62551
aI28536
aI22256
aI38395
aI42110
aI37511
aI14792
aI17306
aI22833
aI15625
aI35384
aI9585
aI41259
aI13866
aI15704
aI29626
aI16526
aI22929
aI38089
aI34266
aI3152
aI17123
aI9328
aI3002
aI18461
aI15803
aI9554
aI18549
aI11868
aI7751
aI9317
aI24265
aI10683
aI60467
aI36839
aI18688
aI21954
aI24760
aI10660
aI25503
aI36736
aI28484
aI24743
aI24152
aI45275
aI46981
aI20502
aI28406
aI6137
aI24534
aI32752
aI16037
aI20554
aI39474
aI19801
aI24957
aI33786
aI52840
aI21594
aI30753
aI20841
aI12570
aI9627
aI18821
aI7637
aI32654
aI14665
aI30000
aI30474
aI20000
aI38715
aI46157
aI24763
aI38847
aI66212
aI8511
aI14859
aI32117
aI23158
aI21232
aI19557
aI17859
aI13874
aI10150
aI25607
aI9449
aI39395
aI8767
aI46585
aI47724
aI20871
aI30569
aI44806
aI35540
aI13454
aI40149
aI22035
aI12294
aI23412
aI10855
aI25135
aI37144
aI35623
aI32774
aI12689
aI8647
aI15127
aI28942
aI40028
aI19836
aI26562
aI96863
aI35378
aI15425
aI15624
aI18661
aI42344
aI7783
aI30421
aI15793
aI33303
aI30974
aI28060
aI10530
aI28734
aI16655
aI11958
aI24543
aI39550
aI93301
aI3960
aI28364
aI5118
aI32506
aI15600
aI35129
aI23500
aI26597
aI11995
aI30315
aI11165
aI20244
aI40104
aI347
aI25356
aI24888
aI58521
aI35962
aI26374
aI20959
aI23061
aI40702
aI30948
aI12668
aI8514
aI18065
aI29205
aI17025
aI32229
aI20672
aI30536
aI70142
aI36459
aI38120
aI6929
aI9200
aI19324
aI20749
aI21749
aI11957
aI16562
aI17253
aI25154
aI10842
aI23358
aI24728
aI7654
aI38129
aI6794
aI16963
aI30467
aI14015
aI14861
aI31517
asS'ward_place'
p19
(lp20
I15
aI11
aI12
aI18
aI13
aI14
aI11
aI19
aI4
aI9
aI11
aI11
aI9
aI7
aI12
aI15
aI16
aI11
aI9
aI10
aI8
aI11
aI17
aI8
aI13
aI12
aI7
aI11
aI10
aI10
aI6
aI14
aI10
aI9
aI18
aI33
aI8
aI10
aI13
aI12
aI9
aI14
aI6
aI14
aI9
aI10
aI9
aI11
aI9
aI10
aI12
aI10
aI13
aI10
aI14
aI16
aI12
aI7
aI11
aI3
aI13
aI12
aI13
aI9
aI5
aI11
aI12
aI12
aI10
aI8
aI12
aI11
aI14
aI9
aI16
aI6
aI9
aI13
aI12
aI20
aI15
aI15
aI12
aI7
aI16
aI14
aI14
aI17
aI12
aI10
aI12
aI11
aI9
aI11
aI19
aI14
aI15
aI16
aI10
aI7
aI11
aI15
aI5
aI10
aI15
aI7
aI14
aI7
aI16
aI15
aI6
aI11
aI11
aI10
aI12
aI11
aI14
aI16
aI8
aI15
aI8
aI10
aI14
aI10
aI7
aI14
aI23
aI9
aI10
aI16
aI12
aI14
aI11
aI22
aI13
aI11
aI7
aI14
aI8
aI6
aI6
aI9
aI10
aI7
aI17
aI7
aI9
aI12
aI9
aI7
aI6
aI10
aI16
aI15
aI8
aI12
aI16
aI15
aI11
aI18
aI18
aI10
aI12
aI7
aI11
aI16
aI14
aI9
aI17
aI10
aI12
aI16
aI9
aI15
aI15
aI17
aI3
aI9
aI10
aI4
aI19
aI12
aI8
aI12
aI13
aI7
aI9
aI10
aI12
aI19
aI14
aI11
aI9
aI10
aI11
aI12
aI14
aI8
aI12
aI8
aI14
aI14
aI14
aI12
aI7
aI17
aI8
aI9
aI13
aI14
aI8
aI15
aI12
aI20
aI10
aI9
aI12
aI9
aI7
aI14
aI8
aI14
aI7
aI11
aI13
aI9
aI14
aI15
aI12
aI13
aI14
aI7
aI9
aI11
aI8
aI11
aI11
aI9
aI9
aI7
aI13
aI11
aI18
aI9
aI13
aI14
aI10
aI13
aI15
aI15
aI9
aI19
aI10
aI11
aI11
aI8
aI12
aI13
aI14
aI13
aI7
aI6
aI9
aI15
aI18
aI12
aI17
aI16
aI19
aI12
aI6
aI13
aI12
aI10
aI14
aI9
aI18
aI18
aI11
aI9
aI11
aI12
aI10
aI16
aI16
aI19
aI3
aI12
aI5
aI14
aI9
aI10
aI13
aI15
aI4
aI10
aI12
aI11
aI16
aI1
aI13
aI9
aI16
aI14
aI9
aI13
aI13
aI14
aI8
aI8
aI10
aI14
aI8
aI10
aI18
aI13
aI14
aI23
aI15
aI11
aI9
aI10
aI11
aI13
aI11
aI10
aI13
aI10
aI14
aI4
aI11
aI15
aI6
aI13
aI10
aI7
aI15
aI10
aI7
aI10
asS'damage_taken'
p21
(lp22
I14406
aI26203
aI21409
aI36536
aI11658
aI13276
aI18154
aI20513
aI4308
aI18333
aI11817
aI12867
aI10942
aI6131
aI17650
aI19917
aI23174
aI13222
aI10311
aI12813
aI5804
aI8526
aI20346
aI8057
aI18937
aI19581
aI14499
aI29203
aI11353
aI8633
aI5170
aI24146
aI7331
aI9439
aI27083
aI26154
aI9549
aI13375
aI27353
aI16274
aI12801
aI30922
aI4982
aI25805
aI6305
aI10990
aI10302
aI22062
aI13819
aI7104
aI8545
aI10247
aI7894
aI10728
aI24735
aI23429
aI13960
aI13657
aI14087
aI5228
aI18562
aI18904
aI18513
aI14546
aI3589
aI16902
aI19229
aI21551
aI18770
aI10209
aI16212
aI15896
aI19710
aI20341
aI25251
aI15807
aI22948
aI16174
aI17965
aI28756
aI25334
aI19027
aI29227
aI19318
aI23069
aI19141
aI17328
aI36041
aI16816
aI12887
aI27509
aI17888
aI14692
aI11266
aI35061
aI20524
aI16432
aI18781
aI13502
aI10083
aI17576
aI29729
aI5408
aI15006
aI15568
aI12839
aI13370
aI7610
aI19629
aI19539
aI6360
aI12010
aI20453
aI23521
aI11315
aI24103
aI22299
aI22052
aI6205
aI18088
aI11703
aI16240
aI32959
aI23138
aI7240
aI35093
aI21824
aI16175
aI4869
aI26860
aI9239
aI29354
aI24314
aI14983
aI25992
aI15596
aI13532
aI19086
aI13869
aI7077
aI4813
aI11172
aI21552
aI17712
aI22737
aI12749
aI4382
aI16035
aI8194
aI14376
aI4532
aI12226
aI20853
aI25318
aI9663
aI14515
aI35823
aI24855
aI11653
aI30895
aI31492
aI27450
aI19554
aI7290
aI24827
aI15706
aI33644
aI8167
aI27777
aI6411
aI23979
aI18099
aI11241
aI15612
aI26751
aI19295
aI7927
aI9781
aI14577
aI4256
aI18603
aI25284
aI10981
aI22926
aI11802
aI6417
aI4819
aI11700
aI12785
aI47274
aI19393
aI13472
aI16135
aI13934
aI9870
aI24941
aI23037
aI10813
aI24379
aI13876
aI26443
aI25416
aI19441
aI12713
aI10434
aI21814
aI18520
aI11501
aI27383
aI25166
aI9109
aI16257
aI20076
aI21193
aI15578
aI17306
aI12946
aI21587
aI10491
aI23772
aI8976
aI27125
aI14721
aI18202
aI18334
aI16913
aI26003
aI23773
aI18018
aI18055
aI30326
aI5336
aI16663
aI19579
aI10792
aI18412
aI15681
aI13282
aI5880
aI11950
aI18421
aI20991
aI32138
aI5792
aI31000
aI23414
aI10513
aI23408
aI24471
aI28236
aI7499
aI26986
aI14488
aI6433
aI22734
aI5467
aI16664
aI25596
aI28892
aI21956
aI6559
aI6415
aI9739
aI22856
aI18260
aI9975
aI12327
aI56469
aI21332
aI17024
aI9501
aI19456
aI20062
aI11549
aI30652
aI13123
aI28909
aI33733
aI11831
aI10968
aI15986
aI19572
aI11030
aI38624
aI23808
aI46263
aI2598
aI19034
aI3140
aI21614
aI11542
aI14059
aI18292
aI18392
aI7953
aI15788
aI12684
aI15187
aI20474
aI243
aI17893
aI10813
aI28764
aI30794
aI17542
aI12854
aI17337
aI23495
aI10106
aI13762
aI14429
aI14901
aI26139
aI12438
aI17786
aI16230
aI27850
aI26854
aI36232
aI21022
aI9237
aI6509
aI14777
aI14467
aI14838
aI7187
aI19209
aI16932
aI12945
aI12865
aI17626
aI28662
aI6609
aI23348
aI11631
aI9723
aI12771
aI7424
aI10091
aI15027
asS'kill'
p23
(lp24
I12
aI6
aI5
aI21
aI5
aI2
aI7
aI8
aI4
aI2
aI13
aI10
aI2
aI10
aI8
aI7
aI11
aI10
aI7
aI10
aI9
aI4
aI2
aI9
aI10
aI2
aI3
aI12
aI6
aI4
aI6
aI8
aI4
aI7
aI5
aI5
aI8
aI3
aI10
aI2
aI12
aI21
aI5
aI8
aI2
aI4
aI11
aI10
aI8
aI13
aI4
aI2
aI9
aI6
aI10
aI14
aI6
aI8
aI8
aI1
aI2
aI4
aI10
aI1
aI2
aI6
aI13
aI6
aI8
aI1
aI9
aI16
aI1
aI12
aI7
aI12
aI14
aI5
aI6
aI9
aI8
aI5
aI10
aI2
aI5
aI9
aI7
aI19
aI7
aI1
aI10
aI6
aI5
aI6
aI12
aI4
aI17
aI16
aI7
aI4
aI0
aI8
aI5
aI14
aI10
aI13
aI1
aI8
aI17
aI8
aI11
aI6
aI15
aI8
aI6
aI5
aI6
aI7
aI0
aI3
aI2
aI10
aI11
aI15
aI8
aI13
aI15
aI11
aI4
aI9
aI4
aI17
aI22
aI7
aI9
aI4
aI2
aI9
aI10
aI6
aI8
aI7
aI13
aI10
aI8
aI10
aI5
aI9
aI10
aI0
aI3
aI2
aI9
aI7
aI13
aI4
aI14
aI14
aI10
aI11
aI12
aI10
aI3
aI10
aI10
aI3
aI13
aI5
aI4
aI5
aI3
aI9
aI6
aI5
aI17
aI4
aI0
aI7
aI2
aI0
aI4
aI3
aI1
aI7
aI5
aI0
aI0
aI8
aI1
aI17
aI10
aI3
aI8
aI10
aI3
aI2
aI4
aI15
aI13
aI14
aI20
aI26
aI3
aI4
aI1
aI4
aI14
aI10
aI4
aI11
aI14
aI6
aI11
aI10
aI11
aI19
aI8
aI5
aI1
aI10
aI1
aI8
aI2
aI3
aI12
aI11
aI14
aI11
aI13
aI12
aI12
aI2
aI2
aI13
aI4
aI8
aI7
aI10
aI8
aI3
aI5
aI3
aI8
aI4
aI18
aI19
aI10
aI13
aI6
aI9
aI5
aI4
aI8
aI9
aI9
aI6
aI10
aI8
aI9
aI12
aI5
aI1
aI9
aI9
aI7
aI6
aI11
aI20
aI9
aI4
aI5
aI6
aI14
aI1
aI7
aI3
aI5
aI10
aI12
aI2
aI10
aI3
aI3
aI11
aI10
aI26
aI1
aI5
aI4
aI4
aI6
aI11
aI7
aI4
aI6
aI21
aI5
aI8
aI13
aI0
aI11
aI16
aI17
aI13
aI15
aI1
aI9
aI15
aI18
aI5
aI2
aI5
aI6
aI1
aI4
aI6
aI13
aI18
aI11
aI6
aI3
aI3
aI4
aI5
aI7
aI3
aI9
aI2
aI9
aI1
aI8
aI5
aI4
aI11
aI0
aI13
aI5
aI7
aI4
aI14
asS'season'
p25
S'SEASON2016'
p26
sS'match_list'
p27
(lp28
I2272271360
aI2329199619
aI2090729476
aI2175561734
aI2230217224
aI2137571338
aI2160163852
aI2216951554
aI2149103118
aI2097907215
aI2274435090
aI2322454035
aI2330013204
aI2094483990
aI2165100121
aI2254227480
aI2126182148
aI2323926555
aI2120481370
aI2130576304
aI2095395899
aI2126373726
aI2127471515
aI2244707366
aI2280328743
aI2110912202
aI2157270570
aI2119480366
aI2202887727
aI2323908144
aI2223098888
aI2164441139
aI2330589236
aI2203968862
aI2165754934
aI2219614775
aI2229263928
aI2211641012
aI2142158394
aI2167976507
aI2278075452
aI2202828861
aI2328619071
aI2100957220
aI2148469128
aI2330231877
aI2325393990
aI2167169377
aI2109852745
aI2094508223
aI2330642511
aI2151898707
aI2242483796
aI2105468221
aI2330585177
aI2324082778
aI2219568731
aI2119367805
aI2159600514
aI2118457951
aI2278163040
aI2323386977
aI2330701922
aI2165540963
aI2120357455
aI2330092649
aI2330098794
aI2322519659
aI2160084267
aI2282042477
aI2165162094
aI2278578707
aI2157817182
aI2166001598
aI2282249334
aI2085034601
aI2102523512
aI2174277901
aI2127416255
aI2124275347
aI2130658429
aI2330054271
aI2164458624
aI2087067439
aI2165731459
aI2201604437
aI2155891649
aI2330802312
aI2149049964
aI2165978252
aI2106127501
aI2224754319
aI2323979920
aI2215980056
aI2244767891
aI2224768148
aI2244780910
aI2224822422
aI2109624857
aI2168127129
aI2322466459
aI2208203932
aI2141795997
aI2166388382
aI2174364831
aI2329355424
aI2328454819
aI2122103972
aI2140105893
aI2167285035
aI2079444814
aI2118096041
aI2277636267
aI2100052343
aI2322506416
aI2324079793
aI2323371188
aI2080296629
aI2164844214
aI2223090359
aI2125390008
aI2329185977
aI2151110842
aI2174215693
aI2164902346
aI2124212867
aI2147308736
aI2096922305
aI2143090379
aI2329996998
aI2120360103
aI2299547337
aI2299627210
aI2209813195
aI2219563724
aI2140033941
aI2106130128
aI2329115858
aI2087062012
aI2102510483
aI2160038616
aI2299502809
aI2096361178
aI2105532623
aI2090788218
aI2096937183
aI2216874209
aI2153094884
aI2103427622
aI2325368038
aI2136373480
aI2168102121
aI2130651371
aI2242480364
aI2126326439
aI2166391677
aI2283103984
aI2217844977
aI2079451031
aI2130494709
aI2322520310
aI2299561207
aI2282173178
aI2149029503
aI2330755326
aI2148275455
aI2323493120
aI2156261121
aI2323373826
aI2215909163
aI2167495428
aI2124682502
aI2126310090
aI2167510794
aI2168231691
aI2202719500
aI2330001677
aI2282178319
aI2321761040
aI2249952216
aI2229217554
aI2323610899
aI2211645205
aI2153173270
aI2174282969
aI2330058521
aI2123407878
aI2118191389
aI2283033587
aI2322635552
aI2329429793
aI2085080027
aI2328534308
aI2118198568
aI2216879068
aI2164929322
aI2230261699
aI2121347439
aI2122180573
aI2328592176
aI2201682056
aI2100056221
aI2144766772
aI2240887097
aI2324212029
aI2148352830
aI2099158847
aI2283041089
aI2111556418
aI2272194884
aI2099987269
aI2093484990
aI2106261729
aI2322587465
aI2272285514
aI2328615243
aI2328780108
aI2111156706
aI2322575182
aI2244712272
aI2217919825
aI2330174802
aI2323971923
aI2323410261
aI2100140601
aI2098883727
aI2282129244
aI2321681246
aI2110915423
aI2212644704
aI2322460513
aI2204411922
aI2120427581
aI2165020005
aI2100886673
aI2323309416
aI2108778221
aI2089817967
aI2324217708
aI2165557309
aI2300224878
aI2224709487
aI2129240433
aI2154468243
aI2164527264
aI2204585335
aI2128495994
aI2201727039
aI2211710332
aI2323437949
aI2140080510
aI2167847061
aI2110348796
aI2223115137
aI2223025538
aI2153019267
aI2299507077
aI2202956166
aI2323976583
aI2203257224
aI2119285357
aI2157223307
aI2158993368
aI2119414157
aI2272148366
aI2108851894
aI2135157648
aI2283028371
aI2147346325
aI2325302679
aI2096992078
aI2159432090
aI2135161243
aI2324058524
aI2283160989
aI2330040734
aI2128388165
aI2212586400
aI2126243468
aI2133792411
aI2321926052
aI2095379137
aI2154536358
aI2105548669
aI2175510440
aI2219405741
aI2085040709
aI2321793967
aI2277700016
aI2299439025
aI2328668147
aI2167830452
aI2148511390
aI2237378999
aI2106114492
aI2103440202
aI2254288830
aI2151969215
aI2096283407
aI2324206240
aI2329304907
aI2278100933
aI2143770723
aI2329182151
aI2204625864
aI2120411843
aI2328547786
aI2231768011
aI2123350479
aI2110827636
aI2098819028
aI2323414350
aI2110115287
aI2329360344
aI2323544025
aI2329234395
aI2231761884
aI2137456509
aI2104720932
aI2106023392
aI2202713057
aI2278079458
aI2237455845
aI2325461993
aI2247096298
aI2325315051
aI2274521582
aI2100972015
aI2282242544
aI2328654321
aI2328530931
aI2235140084
aI2102431735
aI2110433364
aI2323489424
aI2125173759
aI2330709500
aI2202664445
aI2105546750
aI2299612501
asS'neutralM'
p29
(lp30
I18
aI4
aI17
aI36
aI15
aI13
aI2
aI1
aI0
aI5
aI6
aI9
aI1
aI8
aI11
aI16
aI11
aI18
aI14
aI6
aI5
aI5
aI9
aI8
aI14
aI10
aI8
aI13
aI12
aI7
aI1
aI19
aI9
aI8
aI24
aI1
aI14
aI2
aI25
aI3
aI13
aI18
aI2
aI16
aI1
aI7
aI4
aI14
aI11
aI9
aI15
aI2
aI3
aI17
aI17
aI18
aI3
aI6
aI10
aI2
aI19
aI12
aI7
aI12
aI1
aI9
aI17
aI10
aI27
aI1
aI17
aI5
aI23
aI13
aI8
aI15
aI17
aI15
aI9
aI8
aI12
aI14
aI28
aI5
aI9
aI8
aI14
aI15
aI5
aI8
aI16
aI8
aI4
aI4
aI28
aI18
aI30
aI12
aI11
aI1
aI5
aI17
aI0
aI19
aI18
aI11
aI8
aI2
aI25
aI8
aI1
aI2
aI40
aI16
aI27
aI5
aI23
aI12
aI0
aI21
aI1
aI13
aI18
aI14
aI10
aI36
aI16
aI11
aI5
aI17
aI8
aI4
aI20
aI23
aI19
aI15
aI4
aI8
aI2
aI5
aI3
aI17
aI19
aI13
aI24
aI8
aI0
aI6
aI14
aI6
aI14
aI13
aI11
aI6
aI14
aI2
aI15
aI15
aI16
aI21
aI18
aI27
aI5
aI1
aI11
aI9
aI19
aI1
aI21
aI5
aI4
aI17
aI7
aI21
aI16
aI15
aI3
aI4
aI6
aI0
aI2
aI8
aI0
aI8
aI5
aI2
aI5
aI3
aI3
aI49
aI15
aI15
aI0
aI14
aI2
aI10
aI8
aI1
aI23
aI1
aI17
aI20
aI7
aI3
aI0
aI7
aI14
aI6
aI11
aI9
aI10
aI18
aI26
aI18
aI4
aI11
aI17
aI7
aI1
aI2
aI1
aI29
aI10
aI20
aI15
aI11
aI9
aI19
aI13
aI23
aI27
aI0
aI25
aI11
aI5
aI0
aI19
aI16
aI1
aI2
aI27
aI3
aI32
aI12
aI17
aI13
aI6
aI7
aI8
aI20
aI7
aI19
aI24
aI6
aI19
aI21
aI15
aI14
aI39
aI7
aI4
aI1
aI17
aI10
aI13
aI9
aI17
aI19
aI11
aI18
aI5
aI16
aI8
aI6
aI12
aI8
aI25
aI19
aI11
aI13
aI17
aI25
aI6
aI20
aI17
aI29
aI0
aI7
aI4
aI11
aI5
aI30
aI20
aI9
aI6
aI11
aI2
aI6
aI32
aI1
aI8
aI16
aI33
aI22
aI6
aI8
aI15
aI23
aI7
aI2
aI12
aI20
aI36
aI27
aI15
aI22
aI8
aI29
aI38
aI17
aI0
aI3
aI11
aI7
aI6
aI2
aI13
aI22
aI8
aI3
aI5
aI13
aI16
aI32
aI3
aI5
aI25
aI8
aI6
aI18
asS'neutralM_team'
p31
(lp32
I11
aI4
aI13
aI19
aI7
aI8
aI1
aI1
aI0
aI4
aI1
aI2
aI0
aI4
aI9
aI8
aI9
aI7
aI12
aI1
aI1
aI2
aI4
aI7
aI14
aI6
aI8
aI9
aI4
aI4
aI1
aI17
aI2
aI3
aI21
aI0
aI7
aI0
aI15
aI3
aI3
aI4
aI0
aI15
aI1
aI7
aI2
aI8
aI8
aI1
aI3
aI2
aI1
aI15
aI11
aI11
aI1
aI6
aI10
aI2
aI18
aI8
aI6
aI11
aI1
aI8
aI8
aI10
aI18
aI1
aI10
aI5
aI20
aI6
aI7
aI11
aI14
aI14
aI7
aI7
aI9
aI14
aI8
aI1
aI7
aI5
aI5
aI7
aI3
aI7
aI11
aI8
aI4
aI4
aI17
aI18
aI17
aI9
aI7
aI0
aI5
aI13
aI0
aI12
aI1
aI3
aI8
aI2
aI14
aI8
aI1
aI1
aI18
aI10
aI2
aI5
aI7
aI12
aI0
aI19
aI1
aI9
aI18
aI8
aI1
aI20
aI10
aI6
aI2
aI6
aI4
aI1
aI3
aI14
aI13
aI9
aI4
aI5
aI1
aI1
aI1
aI7
aI13
aI10
aI11
aI4
aI0
aI0
aI10
aI6
aI4
aI5
aI7
aI3
aI2
aI1
aI9
aI8
aI7
aI11
aI13
aI18
aI5
aI1
aI5
aI8
aI16
aI0
aI19
aI1
aI1
aI3
aI5
aI14
aI10
aI10
aI3
aI1
aI6
aI0
aI1
aI8
aI0
aI8
aI2
aI0
aI0
aI1
aI3
aI20
aI12
aI10
aI0
aI5
aI1
aI8
aI3
aI1
aI6
aI0
aI14
aI14
aI7
aI2
aI0
aI7
aI6
aI2
aI9
aI6
aI3
aI11
aI17
aI10
aI4
aI1
aI1
aI7
aI1
aI1
aI1
aI22
aI10
aI13
aI12
aI5
aI5
aI16
aI9
aI16
aI22
aI0
aI20
aI5
aI5
aI0
aI13
aI14
aI0
aI2
aI19
aI2
aI12
aI5
aI5
aI5
aI2
aI4
aI8
aI19
aI0
aI9
aI13
aI4
aI15
aI12
aI11
aI9
aI20
aI6
aI1
aI1
aI5
aI8
aI8
aI5
aI4
aI17
aI10
aI10
aI2
aI14
aI3
aI4
aI6
aI8
aI11
aI9
aI5
aI5
aI3
aI17
aI6
aI20
aI10
aI13
aI0
aI7
aI2
aI7
aI1
aI8
aI2
aI7
aI4
aI1
aI2
aI5
aI22
aI1
aI8
aI5
aI20
aI8
aI1
aI7
aI6
aI19
aI1
aI2
aI12
aI19
aI14
aI10
aI9
aI14
aI4
aI27
aI17
aI15
aI0
aI2
aI11
aI6
aI5
aI0
aI1
aI22
aI4
aI3
aI5
aI8
aI2
aI23
aI3
aI1
aI14
aI3
aI3
aI4
asS'summoner_name'
p33
S'Doublelift'
p34
sS'region'
p35
S'na'
p36
sS'minions'
p37
(lp38
I259
aI244
aI208
aI337
aI177
aI200
aI186
aI254
aI88
aI203
aI226
aI245
aI198
aI171
aI174
aI260
aI309
aI188
aI138
aI200
aI153
aI157
aI278
aI168
aI252
aI249
aI198
aI321
aI199
aI194
aI104
aI236
aI203
aI198
aI307
aI72
aI143
aI180
aI218
aI175
aI172
aI243
aI156
aI204
aI188
aI184
aI202
aI186
aI209
aI205
aI250
aI189
aI194
aI234
aI253
aI330
aI184
aI148
aI172
aI50
aI266
aI201
aI273
aI195
aI68
aI314
aI191
aI177
aI197
aI163
aI188
aI155
aI258
aI207
aI281
aI151
aI146
aI164
aI203
aI322
aI227
aI255
aI234
aI144
aI219
aI261
aI194
aI306
aI242
aI151
aI250
aI149
aI238
aI136
aI319
aI196
aI220
aI263
aI207
aI145
aI298
aI275
aI108
aI181
aI215
aI164
aI330
aI148
aI169
aI235
aI96
aI229
aI266
aI239
aI227
aI228
aI315
aI263
aI6
aI306
aI88
aI194
aI272
aI188
aI114
aI269
aI275
aI176
aI152
aI303
aI145
aI288
aI249
aI356
aI229
aI200
aI206
aI242
aI180
aI130
aI89
aI204
aI213
aI208
aI278
aI172
aI134
aI232
aI188
aI193
aI121
aI188
aI208
aI211
aI137
aI189
aI305
aI260
aI226
aI312
aI263
aI282
aI190
aI163
aI226
aI298
aI255
aI170
aI407
aI199
aI204
aI337
aI161
aI197
aI209
aI333
aI87
aI138
aI171
aI57
aI294
aI261
aI152
aI256
aI198
aI152
aI157
aI213
aI164
aI359
aI274
aI200
aI255
aI193
aI175
aI214
aI245
aI214
aI238
aI171
aI181
aI249
aI207
aI240
aI221
aI312
aI211
aI159
aI250
aI247
aI146
aI215
aI332
aI331
aI207
aI226
aI235
aI176
aI148
aI267
aI159
aI308
aI225
aI240
aI262
aI202
aI279
aI295
aI202
aI285
aI412
aI148
aI180
aI193
aI152
aI206
aI193
aI166
aI181
aI153
aI254
aI204
aI213
aI146
aI221
aI244
aI152
aI234
aI279
aI332
aI159
aI342
aI241
aI189
aI260
aI179
aI240
aI283
aI381
aI216
aI145
aI120
aI155
aI223
aI334
aI187
aI257
aI330
aI245
aI214
aI150
aI284
aI243
aI204
aI320
aI166
aI379
aI175
aI193
aI164
aI247
aI173
aI195
aI287
aI269
aI307
aI86
aI303
aI102
aI276
aI144
aI208
aI270
aI217
aI132
aI207
aI234
aI172
aI298
aI19
aI186
aI158
aI268
aI269
aI169
aI245
aI254
aI267
aI160
aI168
aI180
aI234
aI229
aI171
aI281
aI249
aI302
aI327
aI219
aI234
aI176
aI173
aI260
aI223
aI169
aI190
aI171
aI231
aI204
aI148
aI225
aI291
aI141
aI296
aI168
aI146
aI305
aI141
aI156
aI178
asS'damage_m'
p39
(lp40
I8242
aI1969
aI20521
aI25409
aI2563
aI2226
aI11163
aI6380
aI417
aI994
aI2814
aI2323
aI1078
aI499
aI971
aI15660
aI1918
aI342
aI544
aI1437
aI258
aI2795
aI16798
aI1216
aI2178
aI1706
aI605
aI6418
aI977
aI410
aI260
aI692
aI1292
aI341
aI979
aI8692
aI10196
aI1863
aI4745
aI1001
aI3684
aI3203
aI1081
aI16671
aI1014
aI1017
aI1416
aI1657
aI3794
aI1824
aI2942
aI1524
aI2758
aI5545
aI4244
aI6419
aI1188
aI3200
aI922
aI442
aI0
aI5847
aI4943
aI9508
aI580
aI2162
aI2620
aI14057
aI12318
aI305
aI22235
aI1527
aI1263
aI5927
aI6272
aI1662
aI2760
aI10017
aI1449
aI2235
aI25246
aI830
aI1802
aI1171
aI877
aI609
aI2670
aI10961
aI7494
aI1910
aI2578
aI2190
aI1694
aI593
aI2470
aI1216
aI6153
aI4581
aI8340
aI1020
aI932
aI1221
aI174
aI12744
aI1678
aI0
aI1708
aI4933
aI4200
aI1646
aI795
aI3271
aI0
aI1676
aI152
aI561
aI7766
aI3235
aI1418
aI1416
aI2628
aI4784
aI5681
aI2383
aI2332
aI6361
aI7015
aI790
aI951
aI2189
aI1177
aI1413
aI3443
aI4813
aI2941
aI230
aI4318
aI2692
aI1066
aI628
aI3518
aI1392
aI1612
aI11644
aI1896
aI9080
aI1022
aI1059
aI10593
aI769
aI395
aI8468
aI765
aI3361
aI11231
aI529
aI6803
aI1897
aI1091
aI3425
aI12662
aI9079
aI11415
aI1995
aI2544
aI1387
aI1567
aI764
aI1011
aI358
aI281
aI2055
aI451
aI1696
aI2046
aI2927
aI379
aI1658
aI322
aI280
aI2986
aI628
aI562
aI394
aI528
aI1122
aI1202
aI3053
aI3014
aI13926
aI6620
aI1079
aI3198
aI2548
aI1637
aI2091
aI6415
aI3421
aI1180
aI495
aI2159
aI31653
aI3356
aI4811
aI177
aI3087
aI622
aI715
aI1689
aI8196
aI8775
aI1342
aI14262
aI7367
aI1297
aI2143
aI3390
aI1259
aI3083
aI673
aI206
aI1252
aI2968
aI6093
aI1915
aI6785
aI5687
aI2385
aI2214
aI1879
aI1483
aI93
aI6419
aI1441
aI9779
aI1566
aI1010
aI1148
aI1351
aI321
aI2639
aI427
aI8251
aI146
aI3405
aI0
aI14941
aI1716
aI4159
aI584
aI1755
aI15674
aI4304
aI1657
aI5554
aI57
aI1629
aI1253
aI2044
aI2340
aI1555
aI170
aI442
aI5135
aI7719
aI1383
aI4610
aI8066
aI6027
aI1270
aI494
aI943
aI2400
aI2724
aI2127
aI1780
aI976
aI0
aI19249
aI774
aI244
aI1195
aI316
aI770
aI3966
aI4350
aI266
aI7342
aI148
aI9739
aI914
aI3710
aI3703
aI3192
aI545
aI1757
aI1509
aI2980
aI29861
aI0
aI4078
aI870
aI10183
aI5231
aI0
aI916
aI3894
aI2422
aI16149
aI370
aI1464
aI804
aI6051
aI1577
aI4993
aI2226
aI972
aI9987
aI0
aI9142
aI125
aI1234
aI1990
aI2983
aI1761
aI9143
aI803
aI6244
aI2751
aI2806
aI3450
aI1111
aI3607
aI2257
aI1846
aI3148
aI6458
aI1927
aI2827
aI2711
asb.