(ilolstats_util
PlayerMatchHistory
p0
(dp1
S'rank_type'
p2
S'TEAM_BUILDER_DRAFT_RANKED_5x5'
p3
sS'damage_p'
p4
(lp5
I14001
aI15329
aI5113
aI42117
aI18169
aI7695
aI23812
aI5234
aI34719
aI20568
aI7281
aI7847
aI5546
aI19759
aI5772
aI23081
aI14245
aI13203
aI26889
aI3461
aI8446
aI12528
aI2221
aI20977
aI6124
aI7226
aI4384
aI12370
aI13789
aI14187
aI18091
aI23185
aI12155
aI10500
aI18616
aI13087
aI29550
aI35054
aI27961
aI41982
aI39865
aI16005
aI16318
aI42027
aI9164
aI5500
aI15026
aI27558
aI16891
aI7252
aI24886
aI19221
aI22503
aI8841
aI25464
aI34706
aI39995
aI28903
aI4971
aI21412
aI12268
aI16958
aI21368
aI23420
aI9337
aI26377
aI5574
aI10495
aI30561
aI11042
aI8521
aI23025
aI4371
aI42085
aI53616
aI16233
aI11902
aI25828
aI19449
aI11515
aI15635
aI17405
aI1922
aI25737
aI14984
aI10253
aI8895
aI7400
aI11990
aI9569
aI8310
aI18979
aI10505
aI11138
aI11399
aI9278
aI20382
aI11653
aI9849
aI14917
aI8423
aI12853
aI9432
aI14821
aI21371
aI9450
aI7492
aI25605
aI10187
aI27721
aI4322
aI20794
aI23891
aI7801
aI10702
aI17233
aI11925
aI3868
aI4253
aI11090
aI17490
aI14392
aI5097
aI13674
aI6889
aI23337
aI4693
aI19168
aI23264
aI13976
aI28123
aI30178
aI7013
aI11959
aI30581
aI9385
aI15979
aI26277
aI22572
aI13646
aI4342
aI8148
aI17519
aI35649
aI24972
aI9178
aI28483
aI16308
aI4779
aI29845
aI3915
aI12737
aI8412
aI8897
aI15406
aI14080
aI11946
aI37330
aI13324
aI10199
aI9568
aI8815
aI25078
aI9371
aI25357
aI7387
aI12063
aI7380
aI8615
aI10784
aI11929
aI17436
aI20033
aI26858
aI9871
aI6142
aI33217
aI7727
aI2819
aI7079
aI15588
aI6603
aI4928
aI22842
aI25332
aI20907
aI4982
aI14841
aI20981
aI12843
aI9715
aI6962
aI4570
aI16460
aI10844
aI14095
aI3665
aI6180
aI12494
aI9909
aI17348
aI5091
aI18646
aI29824
aI47894
aI22025
aI18940
aI52180
aI3377
aI5612
aI7739
asS'death'
p6
(lp7
I2
aI0
aI3
aI8
aI3
aI2
aI4
aI0
aI7
aI3
aI4
aI1
aI6
aI2
aI0
aI4
aI4
aI5
aI7
aI1
aI0
aI5
aI3
aI4
aI4
aI5
aI4
aI8
aI2
aI4
aI3
aI2
aI8
aI3
aI4
aI3
aI2
aI8
aI5
aI5
aI5
aI3
aI8
aI6
aI2
aI5
aI1
aI5
aI2
aI1
aI7
aI4
aI6
aI1
aI5
aI7
aI4
aI9
aI0
aI2
aI5
aI9
aI6
aI7
aI5
aI5
aI2
aI3
aI6
aI0
aI7
aI7
aI2
aI3
aI3
aI6
aI6
aI4
aI5
aI4
aI6
aI1
aI0
aI6
aI3
aI9
aI5
aI3
aI2
aI4
aI8
aI2
aI7
aI3
aI3
aI4
aI8
aI9
aI5
aI4
aI2
aI1
aI7
aI5
aI4
aI2
aI2
aI5
aI8
aI7
aI2
aI5
aI5
aI5
aI7
aI3
aI3
aI1
aI7
aI2
aI3
aI0
aI4
aI6
aI4
aI5
aI4
aI1
aI4
aI2
aI8
aI9
aI1
aI6
aI5
aI3
aI6
aI4
aI6
aI11
aI5
aI5
aI8
aI4
aI4
aI1
aI5
aI6
aI2
aI9
aI0
aI4
aI2
aI2
aI6
aI0
aI5
aI1
aI3
aI6
aI3
aI5
aI7
aI2
aI7
aI1
aI1
aI2
aI3
aI5
aI4
aI2
aI1
aI7
aI3
aI3
aI5
aI6
aI0
aI3
aI5
aI0
aI4
aI8
aI8
aI1
aI2
aI11
aI4
aI8
aI1
aI4
aI2
aI6
aI3
aI2
aI0
aI5
aI3
aI5
aI3
aI5
aI3
aI7
aI7
aI3
aI6
aI5
aI7
aI4
aI5
asS'neutralM_enemy'
p8
(lp9
I2
aI2
aI0
aI6
aI4
aI2
aI2
aI2
aI1
aI3
aI0
aI0
aI0
aI7
aI1
aI2
aI0
aI0
aI0
aI1
aI0
aI0
aI1
aI1
aI7
aI0
aI0
aI0
aI4
aI0
aI11
aI4
aI0
aI0
aI3
aI1
aI13
aI1
aI2
aI9
aI4
aI0
aI1
aI0
aI2
aI0
aI1
aI2
aI0
aI0
aI5
aI10
aI3
aI3
aI17
aI0
aI3
aI2
aI1
aI0
aI1
aI0
aI4
aI3
aI1
aI0
aI0
aI2
aI5
aI0
aI0
aI1
aI0
aI6
aI2
aI0
aI1
aI3
aI3
aI0
aI0
aI0
aI0
aI0
aI2
aI0
aI0
aI0
aI0
aI2
aI0
aI1
aI0
aI1
aI4
aI0
aI8
aI2
aI3
aI0
aI0
aI2
aI0
aI5
aI3
aI0
aI0
aI2
aI0
aI0
aI0
aI2
aI1
aI3
aI0
aI1
aI0
aI0
aI0
aI5
aI0
aI3
aI0
aI0
aI0
aI5
aI1
aI5
aI0
aI4
aI0
aI4
aI0
aI0
aI4
aI0
aI7
aI0
aI2
aI0
aI0
aI3
aI0
aI5
aI5
aI5
aI0
aI5
aI0
aI15
aI0
aI0
aI0
aI0
aI0
aI3
aI1
aI6
aI4
aI0
aI0
aI0
aI7
aI0
aI2
aI2
aI0
aI0
aI0
aI0
aI4
aI1
aI6
aI2
aI0
aI1
aI2
aI0
aI1
aI0
aI0
aI3
aI1
aI0
aI4
aI12
aI0
aI0
aI0
aI0
aI4
aI4
aI0
aI0
aI4
aI2
aI0
aI0
aI0
aI0
aI0
aI0
aI2
aI2
aI0
aI0
aI1
aI3
aI0
aI1
aI2
asS'gold'
p10
(lp11
I15388
aI12073
aI6979
aI30160
aI13128
aI10144
aI18398
aI10556
aI16774
aI14263
aI8164
aI7435
aI6037
aI15920
aI8911
aI18429
aI12168
aI8024
aI17581
aI7138
aI7749
aI14050
aI10306
aI13528
aI17756
aI6060
aI6079
aI10366
aI12171
aI13294
aI15258
aI12302
aI11974
aI10891
aI19474
aI13994
aI15780
aI17265
aI19118
aI20028
aI22025
aI17315
aI13505
aI16998
aI9278
aI14545
aI14993
aI15642
aI12924
aI8856
aI15487
aI13143
aI21534
aI9962
aI18570
aI18747
aI19249
aI19126
aI8373
aI16625
aI9674
aI12898
aI11523
aI18608
aI10794
aI13816
aI6296
aI10178
aI22040
aI7595
aI8075
aI16069
aI6302
aI20442
aI23556
aI10437
aI13402
aI20199
aI14450
aI8871
aI9709
aI13350
aI9442
aI16553
aI15944
aI12998
aI12357
aI11549
aI8661
aI11061
aI7310
aI13540
aI14078
aI12288
aI13442
aI9713
aI19482
aI14794
aI13827
aI12869
aI9689
aI13431
aI10311
aI15596
aI15672
aI7683
aI8846
aI19558
aI8494
aI15859
aI6137
aI15435
aI17791
aI20769
aI9858
aI13693
aI11008
aI6175
aI11434
aI14426
aI11808
aI13342
aI7352
aI8905
aI7826
aI17336
aI5930
aI17356
aI18625
aI9532
aI14880
aI19137
aI9000
aI10808
aI17224
aI9647
aI20154
aI14725
aI16119
aI11262
aI4975
aI7387
aI14020
aI17964
aI16611
aI10280
aI16036
aI15889
aI10309
aI20462
aI7171
aI12288
aI6043
aI8455
aI15182
aI12439
aI12450
aI18722
aI13199
aI9856
aI9569
aI9738
aI18697
aI10889
aI17553
aI8120
aI10230
aI10155
aI10829
aI9934
aI13080
aI11563
aI14740
aI17905
aI9085
aI15922
aI18123
aI8008
aI6971
aI6395
aI13258
aI7423
aI5507
aI15444
aI14146
aI16914
aI6868
aI11465
aI15356
aI10815
aI9078
aI11325
aI6360
aI11855
aI13563
aI13516
aI12669
aI5757
aI9774
aI10440
aI13797
aI5568
aI12575
aI22944
aI19088
aI11439
aI16132
aI23798
aI4065
aI18217
aI17381
asS'summoner_id'
p12
I3799117
sS'vision_ward'
p13
(lp14
I4
aI2
aI2
aI7
aI4
aI4
aI2
aI0
aI3
aI5
aI3
aI2
aI2
aI5
aI3
aI5
aI5
aI2
aI4
aI3
aI4
aI8
aI4
aI4
aI10
aI1
aI3
aI2
aI3
aI3
aI6
aI2
aI9
aI5
aI4
aI4
aI3
aI9
aI4
aI7
aI8
aI4
aI6
aI5
aI2
aI3
aI0
aI10
aI6
aI1
aI4
aI3
aI3
aI2
aI4
aI4
aI6
aI4
aI3
aI4
aI3
aI8
aI2
aI5
aI5
aI2
aI3
aI2
aI5
aI1
aI2
aI3
aI3
aI5
aI1
aI2
aI5
aI3
aI5
aI2
aI4
aI1
aI3
aI5
aI2
aI6
aI4
aI4
aI1
aI4
aI4
aI2
aI8
aI4
aI6
aI4
aI4
aI4
aI3
aI3
aI3
aI5
aI2
aI4
aI2
aI2
aI3
aI5
aI3
aI6
aI2
aI3
aI7
aI7
aI4
aI5
aI3
aI3
aI3
aI6
aI1
aI4
aI3
aI3
aI3
aI3
aI3
aI3
aI2
aI1
aI0
aI3
aI3
aI4
aI8
aI2
aI6
aI5
aI3
aI6
aI2
aI3
aI7
aI4
aI1
aI3
aI7
aI5
aI4
aI8
aI2
aI3
aI1
aI3
aI4
aI3
aI8
aI3
aI1
aI3
aI3
aI7
aI6
aI2
aI4
aI1
aI2
aI3
aI3
aI5
aI5
aI4
aI3
aI3
aI5
aI3
aI6
aI3
aI2
aI2
aI7
aI4
aI3
aI1
aI6
aI7
aI1
aI5
aI2
aI4
aI2
aI4
aI1
aI3
aI4
aI3
aI4
aI1
aI2
aI3
aI1
aI2
aI3
aI6
aI6
aI1
aI7
aI6
aI1
aI7
aI3
asS'assist'
p15
(lp16
I7
aI5
aI3
aI17
aI10
aI7
aI16
aI4
aI11
aI4
aI3
aI5
aI3
aI8
aI6
aI13
aI10
aI6
aI19
aI2
aI5
aI6
aI1
aI12
aI25
aI0
aI0
aI8
aI14
aI5
aI4
aI8
aI5
aI12
aI9
aI11
aI9
aI15
aI11
aI15
aI14
aI7
aI17
aI19
aI2
aI9
aI10
aI12
aI6
aI6
aI13
aI7
aI10
aI2
aI5
aI9
aI9
aI9
aI6
aI18
aI0
aI8
aI17
aI18
aI6
aI10
aI1
aI10
aI12
aI10
aI7
aI13
aI0
aI17
aI16
aI6
aI12
aI6
aI9
aI4
aI6
aI6
aI5
aI12
aI9
aI6
aI4
aI1
aI9
aI11
aI2
aI10
aI8
aI4
aI8
aI6
aI10
aI11
aI10
aI6
aI5
aI9
aI3
aI11
aI10
aI1
aI2
aI12
aI4
aI10
aI0
aI5
aI11
aI14
aI7
aI13
aI3
aI0
aI7
aI10
aI8
aI8
aI2
aI4
aI2
aI15
aI6
aI9
aI16
aI5
aI15
aI16
aI8
aI6
aI7
aI7
aI7
aI5
aI11
aI8
aI4
aI2
aI7
aI13
aI20
aI7
aI8
aI15
aI3
aI13
aI0
aI9
aI0
aI8
aI7
aI7
aI6
aI14
aI14
aI2
aI3
aI5
aI13
aI2
aI17
aI4
aI6
aI0
aI3
aI1
aI3
aI5
aI12
aI12
aI4
aI8
aI9
aI2
aI1
aI2
aI12
aI3
aI1
aI11
aI18
aI10
aI3
aI8
aI10
aI7
aI7
aI9
aI5
aI5
aI12
aI9
aI4
aI3
aI5
aI5
aI6
aI2
aI4
aI10
aI20
aI8
aI13
aI15
aI2
aI7
aI13
asS'damage'
p17
(lp18
I22489
aI20422
aI6007
aI46591
aI26134
aI10190
aI26280
aI10040
aI48458
aI21910
aI7656
aI10350
aI5700
aI31355
aI5772
aI24373
aI14696
aI17008
aI29338
aI4997
aI8446
aI14103
aI10654
aI30576
aI35486
aI10611
aI4566
aI13545
aI18402
aI19766
aI18353
aI24846
aI18124
aI10500
aI21429
aI21584
aI32788
aI40791
aI44347
aI45655
aI53419
aI25135
aI22425
aI42872
aI9594
aI24475
aI16537
aI37037
aI26410
aI8865
aI26616
aI22286
aI32672
aI9026
aI28505
aI39348
aI47955
aI31887
aI7388
aI37236
aI12674
aI26122
aI22193
aI34529
aI13434
aI36029
aI5746
aI16630
aI39970
aI11180
aI11923
aI33111
aI5957
aI55862
aI62218
aI20707
aI17405
aI37231
aI31381
aI15585
aI16016
aI26514
aI9395
aI26025
aI24212
aI10821
aI13020
aI7512
aI12265
aI11103
aI8762
aI19584
aI11480
aI11986
aI12255
aI9990
aI33322
aI12817
aI13659
aI19173
aI10309
aI19154
aI18153
aI24195
aI31784
aI13153
aI10540
aI35900
aI18935
aI30333
aI5940
aI28583
aI24871
aI38809
aI11037
aI26090
aI17231
aI4667
aI17043
aI15444
aI22623
aI15867
aI7894
aI14038
aI7344
aI26270
aI6030
aI27612
aI26771
aI15210
aI36644
aI49472
aI10208
aI12204
aI33452
aI12093
aI24462
aI26277
aI28937
aI15704
aI5740
aI8422
aI21459
aI46132
aI37357
aI13059
aI39466
aI25610
aI9169
aI33809
aI7503
aI13859
aI8632
aI9102
aI16750
aI17855
aI13061
aI47413
aI16695
aI10283
aI12048
aI13835
aI26490
aI12068
aI34136
aI9737
aI14563
aI7518
aI10400
aI16715
aI18559
aI22132
aI21183
aI29354
aI9917
aI30699
aI35837
aI7997
aI3749
aI9254
aI22680
aI7192
aI5878
aI25245
aI27877
aI24370
aI5122
aI15463
aI34065
aI13797
aI13916
aI9448
aI6183
aI16460
aI11855
aI20574
aI15973
aI6416
aI16719
aI10091
aI25343
aI6739
aI24547
aI38807
aI57160
aI29090
aI27369
aI56915
aI5585
aI26204
aI34582
asS'ward_place'
p19
(lp20
I18
aI10
aI9
aI33
aI14
aI13
aI15
aI5
aI16
aI19
aI9
aI8
aI8
aI24
aI11
aI20
aI18
aI11
aI19
aI9
aI11
aI28
aI13
aI13
aI29
aI7
aI8
aI13
aI13
aI14
aI16
aI14
aI20
aI15
aI20
aI12
aI18
aI24
aI25
aI23
aI27
aI19
aI18
aI21
aI10
aI18
aI10
aI29
aI19
aI9
aI19
aI13
aI19
aI11
aI19
aI19
aI20
aI23
aI10
aI23
aI12
aI20
aI11
aI23
aI13
aI16
aI8
aI9
aI26
aI8
aI8
aI17
aI7
aI22
aI18
aI11
aI15
aI19
aI18
aI12
aI14
aI13
aI9
aI20
aI17
aI19
aI16
aI11
aI8
aI14
aI11
aI11
aI24
aI14
aI22
aI13
aI23
aI18
aI17
aI15
aI10
aI18
aI14
aI15
aI19
aI7
aI10
aI20
aI12
aI21
aI10
aI17
aI20
aI27
aI12
aI20
aI15
aI9
aI13
aI17
aI10
aI14
aI11
aI9
aI12
aI18
aI9
aI17
aI18
aI5
aI15
aI19
aI9
aI15
aI20
aI7
aI24
aI18
aI17
aI17
aI6
aI10
aI25
aI23
aI13
aI13
aI21
aI17
aI14
aI24
aI6
aI12
aI8
aI10
aI14
aI14
aI19
aI22
aI12
aI10
aI13
aI16
aI19
aI11
aI17
aI7
aI11
aI12
aI13
aI16
aI14
aI14
aI14
aI19
aI15
aI14
aI23
aI7
aI8
aI9
aI21
aI8
aI11
aI14
aI16
aI23
aI6
aI16
aI18
aI18
aI7
aI12
aI8
aI13
aI13
aI13
aI14
aI6
aI12
aI11
aI15
aI8
aI17
aI33
aI23
aI12
aI21
aI30
aI6
aI28
aI13
asS'damage_taken'
p21
(lp22
I19356
aI9311
aI9494
aI28532
aI16177
aI5751
aI16419
aI4076
aI27469
aI17611
aI8680
aI7226
aI9701
aI14118
aI2581
aI15728
aI17733
aI11750
aI22302
aI7966
aI5592
aI26115
aI11500
aI12527
aI23407
aI10900
aI6359
aI17116
aI11507
aI16858
aI10246
aI16262
aI23718
aI11719
aI20604
aI21454
aI13173
aI24477
aI23807
aI25356
aI22276
aI16053
aI18795
aI26322
aI7392
aI23926
aI13154
aI20857
aI18326
aI4901
aI22785
aI16518
aI26109
aI8823
aI19327
aI24781
aI27927
aI30042
aI5209
aI15332
aI16731
aI23251
aI15496
aI30786
aI14970
aI20147
aI6983
aI8280
aI29789
aI4888
aI14101
aI25637
aI8545
aI20390
aI25268
aI17044
aI16689
aI23380
aI21305
aI10857
aI13162
aI12608
aI4152
aI23499
aI17555
aI20263
aI16296
aI13199
aI9262
aI14107
aI15048
aI13716
aI23744
aI15095
aI22171
aI11314
aI24927
aI25107
aI15956
aI13255
aI8251
aI13807
aI16101
aI18310
aI16585
aI10804
aI4368
aI24265
aI15614
aI22791
aI5874
aI19714
aI22455
aI29276
aI21617
aI15724
aI16259
aI5113
aI19131
aI13151
aI15336
aI10918
aI9191
aI12537
aI12801
aI23535
aI9847
aI13062
aI27414
aI8645
aI28052
aI34117
aI6809
aI17709
aI22683
aI10459
aI35930
aI19008
aI26272
aI20007
aI8981
aI9605
aI21397
aI21107
aI17670
aI6513
aI26337
aI16996
aI7176
aI28589
aI3598
aI13924
aI9022
aI7516
aI16660
aI10814
aI20342
aI21109
aI14152
aI15722
aI10987
aI12337
aI24353
aI6883
aI19941
aI12201
aI8360
aI7040
aI14095
aI12300
aI14612
aI13869
aI10837
aI24192
aI11944
aI17911
aI24734
aI15274
aI3732
aI8728
aI15677
aI6067
aI6911
aI23498
aI21078
aI19318
aI8273
aI22512
aI16618
aI18974
aI5830
aI12842
aI5917
aI12759
aI12452
aI14234
aI8382
aI7680
aI10101
aI15051
aI13791
aI6472
aI14331
aI36948
aI28591
aI15231
aI22296
aI31841
aI9836
aI26117
aI19436
asS'kill'
p23
(lp24
I10
aI8
aI2
aI13
aI7
aI4
aI9
aI3
aI13
aI9
aI5
aI5
aI1
aI4
aI2
aI7
aI4
aI3
aI6
aI2
aI1
aI2
aI7
aI13
aI10
aI2
aI0
aI1
aI5
aI10
aI11
aI3
aI3
aI4
aI4
aI12
aI11
aI9
aI7
aI14
aI9
aI5
aI6
aI8
aI4
aI4
aI5
aI7
aI3
aI5
aI8
aI7
aI18
aI5
aI6
aI11
aI13
aI5
aI5
aI12
aI3
aI5
aI4
aI3
aI1
aI5
aI1
aI5
aI7
aI2
aI1
aI12
aI2
aI12
aI18
aI4
aI3
aI17
aI8
aI3
aI3
aI11
aI6
aI5
aI6
aI3
aI5
aI6
aI5
aI1
aI4
aI8
aI3
aI10
aI2
aI1
aI8
aI7
aI3
aI5
aI7
aI4
aI4
aI11
aI4
aI2
aI6
aI17
aI3
aI14
aI0
aI5
aI8
aI15
aI5
aI1
aI3
aI1
aI6
aI3
aI3
aI9
aI3
aI6
aI0
aI8
aI0
aI13
aI5
aI7
aI6
aI12
aI5
aI4
aI14
aI2
aI9
aI8
aI9
aI2
aI0
aI3
aI3
aI10
aI6
aI2
aI7
aI6
aI2
aI8
aI1
aI8
aI2
aI4
aI9
aI6
aI2
aI17
aI6
aI4
aI2
aI5
aI7
aI6
aI10
aI5
aI8
aI4
aI4
aI3
aI7
aI5
aI11
aI11
aI1
aI14
aI10
aI2
aI1
aI2
aI3
aI1
aI1
aI11
aI3
aI5
aI1
aI7
aI5
aI7
aI5
aI5
aI1
aI4
aI5
aI7
aI11
aI1
aI3
aI2
aI6
aI1
aI5
aI6
aI12
aI0
aI14
aI9
aI1
aI12
aI19
asS'season'
p25
S'SEASON2016'
p26
sS'match_list'
p27
(lp28
I2498399233
aI2477572610
aI2298929067
aI2498863110
aI2323652616
aI2361892361
aI2493049356
aI2318760974
aI2433986064
aI2535430674
aI2333887025
aI2493048854
aI2477422103
aI2314430062
aI2549362719
aI2561285211
aI2512401447
aI2474880553
aI2595476015
aI2314120752
aI2549308977
aI2361888818
aI2295676979
aI2302735412
aI2294507063
aI2349268536
aI2335186528
aI2521612554
aI2482840640
aI2424011329
aI2520015942
aI2472359495
aI2348852808
aI2564824137
aI2548418123
aI2294169166
aI2474902096
aI2497898066
aI2303898211
aI2493876308
aI2393460821
aI2314233432
aI2512365657
aI2549606490
aI2498398299
aI2308909662
aI2491111008
aI2333950050
aI2406500027
aI2472423526
aI2474886248
aI2307621483
aI2520040045
aI2361772142
aI2595469423
aI2520119411
aI2314093408
aI2333943933
aI2564832896
aI2302756993
aI2482844290
aI2374819973
aI2549265033
aI2520267402
aI2520319115
aI2485730447
aI2522620564
aI2560278677
aI2570537622
aI2535464559
aI2550534813
aI2521398213
aI2349181088
aI2485645477
aI2493076646
aI2447859371
aI2578073773
aI2595551407
aI2299052209
aI2472446791
aI2482833011
aI2289990325
aI2299291318
aI2578076856
aI2308277610
aI2477573151
aI2548413117
aI2521399999
aI2491039936
aI2308302529
aI2348817782
aI2529029832
aI2406413373
aI2368356046
aI2369469138
aI2398077475
aI2323686994
aI2386600149
aI2393367767
aI2369352418
aI2521592549
aI2528986342
aI2309205737
aI2309758242
aI2498386669
aI2514168560
aI2477398770
aI2497904373
aI2307368186
aI2349270961
aI2409868034
aI2564805891
aI2564838148
aI2285480557
aI2602155274
aI2333872599
aI2433508108
aI2284192014
aI2320173489
aI2543295251
aI2386334997
aI2527247126
aI2386678551
aI2536741651
aI2341728815
aI2423990556
aI2333798685
aI2295672607
aI2512076577
aI2498001698
aI2368170275
aI2299204390
aI2369257767
aI2472459049
aI2348648239
aI2335194928
aI2594740023
aI2561690425
aI2512040250
aI2474836283
aI2520028988
aI2595562634
aI2314207447
aI2341803329
aI2308424515
aI2485651780
aI2500218183
aI2520134472
aI2386693962
aI2474928461
aI2286980493
aI2309776931
aI2468085077
aI2512093528
aI2548439898
aI2499910493
aI2368451045
aI2368389472
aI2477434721
aI2549405538
aI2382845796
aI2294519782
aI2560275306
aI2386577259
aI2519237998
aI2535549245
aI2519182197
aI2498397558
aI2286868346
aI2307720572
aI2536698749
aI2409942677
aI2498650497
aI2368368517
aI2493941638
aI2300006285
aI2404204432
aI2594692500
aI2535530902
aI2514251159
aI2404196764
aI2563953565
aI2409905567
aI2548239787
aI2535670700
aI2544115016
aI2535582535
aI2404209588
aI2323540445
aI2335188725
aI2535467461
aI2548429257
aI2335226316
aI2563936205
aI2341809997
aI2382841809
aI2300110533
aI2519089622
aI2548196311
aI2564034525
aI2406532578
aI2472455139
aI2409980070
aI2299046054
aI2519203816
aI2423808826
aI2349165549
aI2544139759
aI2318774258
aI2304003631
aI2299283450
asS'neutralM'
p29
(lp30
I20
aI3
aI5
aI31
aI10
aI5
aI19
aI15
aI5
aI11
aI8
aI1
aI1
aI31
aI1
aI24
aI14
aI0
aI11
aI3
aI0
aI30
aI7
aI3
aI29
aI3
aI0
aI16
aI20
aI6
aI17
aI25
aI29
aI1
aI26
aI10
aI32
aI22
aI16
aI47
aI38
aI18
aI6
aI17
aI5
aI10
aI24
aI18
aI21
aI4
aI38
aI23
aI16
aI5
aI44
aI14
aI14
aI35
aI2
aI14
aI5
aI12
aI10
aI43
aI9
aI12
aI0
aI2
aI48
aI4
aI5
aI20
aI2
aI30
aI22
aI3
aI12
aI22
aI18
aI10
aI3
aI14
aI7
aI15
aI23
aI11
aI9
aI5
aI6
aI4
aI1
aI14
aI35
aI13
aI30
aI9
aI35
aI29
aI29
aI11
aI0
aI14
aI15
aI16
aI19
aI2
aI2
aI41
aI5
aI16
aI1
aI17
aI26
aI33
aI1
aI29
aI12
aI4
aI11
aI17
aI9
aI14
aI1
aI0
aI7
aI28
aI2
aI19
aI30
aI4
aI6
aI35
aI0
aI9
aI35
aI9
aI34
aI13
aI10
aI9
aI1
aI3
aI11
aI26
aI26
aI5
aI13
aI31
aI6
aI48
aI0
aI10
aI0
aI0
aI16
aI14
aI21
aI17
aI17
aI2
aI5
aI10
aI24
aI0
aI13
aI6
aI7
aI6
aI6
aI15
aI22
aI15
aI9
aI22
aI3
aI15
aI35
aI3
aI3
aI0
aI16
aI3
aI4
aI20
aI19
aI42
aI2
aI7
aI6
aI3
aI8
aI12
aI0
aI4
aI28
aI19
aI10
aI1
aI13
aI1
aI10
aI4
aI17
aI51
aI7
aI3
aI24
aI42
aI0
aI26
aI17
asS'neutralM_team'
p31
(lp32
I18
aI1
aI5
aI25
aI6
aI3
aI17
aI13
aI4
aI8
aI8
aI1
aI1
aI24
aI0
aI22
aI14
aI0
aI11
aI2
aI0
aI30
aI6
aI2
aI22
aI3
aI0
aI16
aI16
aI6
aI6
aI21
aI29
aI1
aI23
aI9
aI19
aI21
aI14
aI38
aI34
aI18
aI5
aI17
aI3
aI10
aI23
aI16
aI21
aI4
aI33
aI13
aI13
aI2
aI27
aI14
aI11
aI33
aI1
aI14
aI4
aI12
aI6
aI40
aI8
aI12
aI0
aI0
aI43
aI4
aI5
aI19
aI2
aI24
aI20
aI3
aI11
aI19
aI15
aI10
aI3
aI14
aI7
aI15
aI21
aI11
aI9
aI5
aI6
aI2
aI1
aI13
aI35
aI12
aI26
aI9
aI27
aI27
aI26
aI11
aI0
aI12
aI15
aI11
aI16
aI2
aI2
aI39
aI5
aI16
aI1
aI15
aI25
aI30
aI1
aI28
aI12
aI4
aI11
aI12
aI9
aI11
aI1
aI0
aI7
aI23
aI1
aI14
aI30
aI0
aI6
aI31
aI0
aI9
aI31
aI9
aI27
aI13
aI8
aI9
aI1
aI0
aI11
aI21
aI21
aI0
aI13
aI26
aI6
aI33
aI0
aI10
aI0
aI0
aI16
aI11
aI20
aI11
aI13
aI2
aI5
aI10
aI17
aI0
aI11
aI4
aI7
aI6
aI6
aI15
aI18
aI14
aI3
aI20
aI3
aI14
aI33
aI3
aI2
aI0
aI16
aI0
aI3
aI20
aI15
aI30
aI2
aI7
aI6
aI3
aI4
aI8
aI0
aI4
aI24
aI17
aI10
aI1
aI13
aI1
aI10
aI4
aI15
aI49
aI7
aI3
aI23
aI39
aI0
aI25
aI15
asS'summoner_name'
p33
S'PraY8D'
p34
sS'region'
p35
S'kr'
p36
sS'minions'
p37
(lp38
I267
aI197
aI124
aI479
aI201
aI187
aI273
aI195
aI218
aI233
aI120
aI119
aI106
aI285
aI179
aI297
aI216
aI161
aI274
aI138
aI162
aI262
aI194
aI181
aI180
aI116
aI162
aI160
aI174
aI201
aI232
aI210
aI160
aI183
aI318
aI222
aI218
aI272
aI338
aI248
aI340
aI290
aI199
aI278
aI192
aI288
aI255
aI242
aI253
aI165
aI160
aI165
aI291
aI211
aI282
aI282
aI319
aI323
aI138
aI178
aI193
aI197
aI168
aI255
aI191
aI224
aI147
aI145
aI281
aI158
aI137
aI208
aI144
aI290
aI375
aI204
aI219
aI257
aI235
aI158
aI168
aI198
aI134
aI298
aI220
aI228
aI205
aI224
aI122
aI211
aI116
aI236
aI199
aI165
aI211
aI210
aI256
aI167
aI191
aI227
aI161
aI204
aI145
aI195
aI260
aI166
aI141
aI254
aI107
aI222
aI151
aI263
aI293
aI276
aI159
aI192
aI205
aI136
aI148
aI206
aI188
aI189
aI126
aI157
aI181
aI272
aI107
aI252
aI267
aI121
aI253
aI262
aI142
aI197
aI218
aI147
aI302
aI283
aI264
aI190
aI88
aI151
aI268
aI245
aI238
aI197
aI277
aI197
aI183
aI285
aI157
aI171
aI136
aI148
aI189
aI180
aI223
aI213
aI198
aI188
aI190
aI160
aI308
aI194
aI228
aI132
aI158
aI217
aI224
aI182
aI215
aI195
aI227
aI267
aI186
aI212
aI252
aI157
aI160
aI121
aI245
aI151
aI101
aI185
aI207
aI253
aI136
aI124
aI275
aI153
aI112
aI150
aI102
aI245
aI214
aI205
aI181
aI96
aI177
aI201
aI234
aI101
aI238
aI362
aI234
aI237
aI183
aI367
aI53
aI292
aI197
asS'damage_m'
p39
(lp40
I8207
aI5093
aI894
aI1846
aI6976
aI2494
aI1150
aI4709
aI13738
aI1041
aI374
aI2502
aI153
aI9311
aI0
aI238
aI451
aI3804
aI1071
aI1536
aI0
aI1463
aI8433
aI8975
aI29170
aI3169
aI182
aI203
aI3626
aI5219
aI262
aI913
aI5969
aI0
aI2558
aI8265
aI1518
aI3259
aI16386
aI2116
aI12774
aI8722
aI6106
aI353
aI429
aI18815
aI833
aI9179
aI7179
aI1612
aI1049
aI2404
aI9838
aI185
aI682
aI1421
aI7688
aI1690
aI2416
aI15048
aI221
aI9164
aI0
aI9944
aI4096
aI9652
aI172
aI5874
aI8220
aI138
aI3329
aI8702
aI1585
aI11455
aI3901
aI4474
aI5393
aI10093
aI10948
aI4017
aI381
aI8024
aI7121
aI0
aI9003
aI483
aI4068
aI112
aI275
aI1377
aI452
aI605
aI854
aI847
aI751
aI712
aI11583
aI1164
aI3404
aI4256
aI1886
aI5548
aI8480
aI8569
aI8548
aI3437
aI3047
aI9985
aI8747
aI1690
aI1618
aI7225
aI605
aI30680
aI334
aI8408
aI4993
aI798
aI12581
aI4083
aI4405
aI867
aI2797
aI363
aI455
aI2428
aI1337
aI8372
aI1948
aI1137
aI8168
aI17186
aI3194
aI245
aI1938
aI2187
aI8073
aI0
aI6364
aI2058
aI1398
aI274
aI3684
aI7799
aI11400
aI3881
aI10534
aI8809
aI4390
aI1849
aI3587
aI833
aI220
aI205
aI504
aI3775
aI1115
aI7771
aI3306
aI0
aI2019
aI5019
aI490
aI2697
aI8694
aI2349
aI2107
aI138
aI1733
aI5610
aI6199
aI4651
aI610
aI2271
aI45
aI24005
aI1972
aI270
aI929
aI2175
aI6516
aI589
aI950
aI1176
aI1524
aI2543
aI139
aI534
aI12468
aI953
aI4201
aI2485
aI1612
aI0
aI523
aI5947
aI11939
aI235
aI4093
aI0
aI7546
aI1647
aI4701
aI8815
aI8845
aI6155
aI8237
aI3376
aI2208
aI20316
aI25668
asb.