(ilolstats_util
PlayerMatchHistory
p0
(dp1
S'rank_type'
p2
S'TEAM_BUILDER_DRAFT_RANKED_5x5'
p3
sS'damage_p'
p4
(lp5
I13467
aI14889
aI17173
aI14048
aI10896
aI12452
aI17577
aI25592
aI28452
aI8080
aI9207
aI23343
aI24686
aI46773
aI35652
aI35205
aI16512
aI10642
aI26716
aI5188
aI31908
aI14501
aI5774
aI39670
aI37928
aI18987
aI23254
aI12853
aI15021
aI4365
aI3260
aI23938
aI26106
aI27952
aI8673
aI12119
aI17717
aI11334
aI38822
asS'death'
p6
(lp7
I4
aI6
aI11
aI6
aI8
aI11
aI4
aI4
aI6
aI1
aI6
aI10
aI8
aI12
aI7
aI8
aI8
aI8
aI7
aI10
aI7
aI2
aI2
aI10
aI12
aI3
aI4
aI10
aI11
aI12
aI3
aI9
aI13
aI5
aI5
aI12
aI4
aI6
aI5
asS'neutralM_enemy'
p8
(lp9
I2
aI2
aI6
aI1
aI0
aI0
aI0
aI4
aI1
aI1
aI0
aI0
aI14
aI6
aI3
aI5
aI0
aI4
aI12
aI1
aI5
aI0
aI2
aI7
aI5
aI5
aI1
aI0
aI0
aI0
aI3
aI1
aI6
aI1
aI0
aI0
aI0
aI4
aI9
asS'gold'
p10
(lp11
I9290
aI12828
aI12728
aI10351
aI9686
aI9256
aI12785
aI14911
aI11934
aI7547
aI8345
aI11471
aI17962
aI18530
aI18969
aI17978
aI11951
aI9855
aI17222
aI10024
aI13231
aI10441
aI8516
aI15277
aI17850
aI11007
aI11116
aI10621
aI10348
aI10158
aI9554
aI13813
aI18544
aI15013
aI9556
aI9102
aI12915
aI11756
aI20617
asS'summoner_id'
p12
I31014009
sS'vision_ward'
p13
(lp14
I2
aI0
aI2
aI2
aI2
aI2
aI2
aI2
aI1
aI1
aI2
aI2
aI4
aI4
aI1
aI2
aI4
aI1
aI2
aI1
aI2
aI1
aI2
aI2
aI2
aI1
aI3
aI1
aI1
aI0
aI1
aI3
aI1
aI2
aI2
aI1
aI2
aI1
aI0
asS'assist'
p15
(lp16
I7
aI5
aI4
aI13
aI7
aI4
aI4
aI7
aI5
aI6
aI5
aI2
aI15
aI15
aI8
aI5
aI5
aI10
aI3
aI7
aI7
aI8
aI7
aI12
aI4
aI4
aI9
aI6
aI6
aI2
aI8
aI6
aI15
aI6
aI4
aI1
aI8
aI7
aI4
asS'damage'
p17
(lp18
I15118
aI19489
aI18645
aI21276
aI13718
aI12452
aI18152
aI28903
aI31814
aI9089
aI9898
aI26307
aI28948
aI51661
aI39758
aI39859
aI19895
aI11349
aI29230
aI21098
aI33932
aI16667
aI6212
aI42420
aI40830
aI19455
aI24745
aI13599
aI19021
aI21521
aI14054
aI26947
aI41330
aI32941
aI9762
aI13132
aI22550
aI13105
aI54610
asS'ward_place'
p19
(lp20
I8
aI8
aI11
aI5
aI7
aI8
aI12
aI5
aI7
aI6
aI8
aI14
aI13
aI12
aI12
aI18
aI15
aI8
aI11
aI8
aI12
aI6
aI8
aI10
aI17
aI6
aI7
aI7
aI8
aI8
aI8
aI10
aI14
aI10
aI9
aI9
aI9
aI6
aI11
asS'damage_taken'
p21
(lp22
I11197
aI20007
aI24265
aI14877
aI18214
aI18876
aI18813
aI14257
aI37774
aI5433
aI12779
aI26287
aI26390
aI32800
aI20826
aI29634
aI24969
aI15839
aI25484
aI23914
aI25259
aI11012
aI9853
aI35540
aI31618
aI12564
aI15970
aI26325
aI20473
aI23531
aI12031
aI28905
aI33609
aI20075
aI13841
aI21405
aI15628
aI23369
aI33664
asS'kill'
p23
(lp24
I3
aI5
aI4
aI5
aI0
aI3
aI5
aI13
aI7
aI8
aI4
aI5
aI11
aI21
aI18
aI12
aI5
aI1
aI13
aI3
aI7
aI11
aI2
aI8
aI15
aI10
aI9
aI4
aI6
aI7
aI4
aI9
aI10
aI13
aI6
aI3
aI8
aI4
aI21
asS'season'
p25
S'SEASON2016'
p26
sS'match_list'
p27
(lp28
I2267763713
aI2088025989
aI2224358534
aI2081187592
aI2088032137
aI2095294090
aI2088903309
aI2107891102
aI2088299312
aI2227371810
aI2095308196
aI2081261095
aI2100060329
aI2080307244
aI2220679726
aI2095958064
aI2093030814
aI2095392185
aI2087947198
aI2079168704
aI2079150146
aI2081173959
aI2095219528
aI2083161419
aI2093038287
aI2080234067
aI2224070876
aI2088827992
aI2170294874
aI2093121999
aI2093023324
aI2096299113
aI2227384222
aI2267741164
aI2080237934
aI2091321971
aI2080303604
aI2083742072
aI2222011899
asS'neutralM'
p29
(lp30
I4
aI11
aI12
aI4
aI9
aI3
aI11
aI9
aI4
aI1
aI1
aI19
aI30
aI25
aI7
aI25
aI7
aI7
aI13
aI11
aI20
aI3
aI7
aI21
aI17
aI11
aI7
aI10
aI8
aI9
aI7
aI8
aI42
aI22
aI2
aI9
aI6
aI15
aI34
asS'neutralM_team'
p31
(lp32
I2
aI9
aI6
aI3
aI9
aI3
aI11
aI5
aI3
aI0
aI1
aI19
aI16
aI19
aI4
aI20
aI7
aI3
aI1
aI10
aI15
aI3
aI5
aI14
aI12
aI6
aI6
aI10
aI8
aI9
aI4
aI7
aI36
aI21
aI2
aI9
aI6
aI11
aI25
asS'summoner_name'
p33
S'ST1XXAY'
p34
sS'region'
p35
S'na'
p36
sS'minions'
p37
(lp38
I162
aI233
aI250
aI143
aI202
aI147
aI278
aI248
aI194
aI99
aI140
aI197
aI272
aI181
aI275
aI293
aI201
aI173
aI258
aI181
aI236
aI133
aI173
aI207
aI234
aI166
aI179
aI200
aI178
aI171
aI133
aI257
aI240
aI223
aI171
aI155
aI208
aI221
aI296
asS'damage_m'
p39
(lp40
I1650
aI0
aI1064
aI6831
aI0
aI0
aI575
aI3311
aI3200
aI1008
aI690
aI2399
aI2861
aI2880
aI2925
aI3706
aI3119
aI654
aI1630
aI15909
aI1343
aI801
aI438
aI1797
aI2506
aI468
aI938
aI745
aI3720
aI16824
aI10698
aI1489
aI12538
aI2549
aI1088
aI1012
aI4035
aI1159
aI14960
asb.